(lp0
(S'For All Walks of Life.'
p1
S'M'
p2
(dp3
Vprobability
p4
(dp5
Vneg
p6
F0.369456062650219
sVneutral
p7
F0.7691799258863795
sVpos
p8
F0.630543937349781
ssVlabel
p9
Vneutral
p10
stp11
a(S'Color dream shoes.'
p12
S'N'
p13
(dp14
Vprobability
p15
(dp16
Vneg
p17
F0.3538761167029494
sVneutral
p18
F0.8594278303921259
sVpos
p19
F0.6461238832970506
ssVlabel
p20
Vneutral
p21
stp22
a(S'Too much is not enough.'
p23
g2
(dp24
Vprobability
p25
(dp26
Vneg
p27
F0.7514760322072236
sVneutral
p28
F0.25697851174403286
sVpos
p29
F0.2485239677927764
ssVlabel
p30
Vneg
p31
stp32
a(S'The Baby shoes that Stay On!'
p33
g2
(dp34
Vprobability
p35
(dp36
Vneg
p37
F0.44198104390511583
sVneutral
p38
F0.8705267199473491
sVpos
p39
F0.5580189560948842
ssVlabel
p40
Vneutral
p41
stp42
a(S'Look Again.'
p43
g13
(dp44
Vprobability
p45
(dp46
Vneg
p47
F0.48987269970458736
sVneutral
p48
F0.49411655661494097
sVpos
p49
F0.5101273002954126
ssVlabel
p50
Vpos
p51
stp52
a(S'Nothing comes between me and my Calvins.'
p53
g2
(dp54
Vprobability
p55
(dp56
Vneg
p57
F0.6688570811746275
sVneutral
p58
F0.34832188310513795
sVpos
p59
F0.3311429188253725
ssVlabel
p60
Vneg
p61
stp62
a(S'Built for work.'
p63
g2
(dp64
Vprobability
p65
(dp66
Vneg
p67
F0.5583306209064405
sVneutral
p68
F0.7033535712971156
sVpos
p69
F0.4416693790935596
ssVlabel
p70
Vneutral
p71
stp72
a(S'Be your own label.'
p73
g2
(dp74
Vprobability
p75
(dp76
Vneg
p77
F0.38557051344703774
sVneutral
p78
F0.0869136558911085
sVpos
p79
F0.6144294865529623
ssVlabel
p80
Vpos
p81
stp82
a(S"For all the places you'll go."
p83
g2
(dp84
Vprobability
p85
(dp86
Vneg
p87
F0.36147793513081805
sVneutral
p88
F0.34910838120773574
sVpos
p89
F0.638522064869182
ssVlabel
p90
Vpos
p91
stp92
a(S'Shoes designed for living.'
p93
g2
(dp94
Vprobability
p95
(dp96
Vneg
p97
F0.5014056025153154
sVneutral
p98
F0.8379615674598205
sVpos
p99
F0.4985943974846846
ssVlabel
p100
Vneutral
p101
stp102
a(S'Shoes to live in.'
p103
g13
(dp104
Vprobability
p105
(dp106
Vneg
p107
F0.4071137867038943
sVneutral
p108
F0.7567422624934482
sVpos
p109
F0.5928862132961057
ssVlabel
p110
Vneutral
p111
stp112
a(S'For successful living.'
p113
g13
(dp114
Vprobability
p115
(dp116
Vneg
p117
F0.29978139677660876
sVneutral
p118
F0.4515777736727707
sVpos
p119
F0.7002186032233912
ssVlabel
p120
Vpos
p121
stp122
a(S'The luxury of dirt.'
p123
g2
(dp124
Vprobability
p125
(dp126
Vneg
p127
F0.6120727068867873
sVneutral
p128
F0.7519480421770613
sVpos
p129
F0.38792729311321267
ssVlabel
p130
Vneutral
p131
stp132
a(S'The official uniform of New York.'
p133
g2
(dp134
Vprobability
p135
(dp136
Vneg
p137
F0.3658126681372773
sVneutral
p138
F0.6644105628550782
sVpos
p139
F0.6341873318627227
ssVlabel
p140
Vneutral
p141
stp142
a(S"It's hard to be nice if you don't feel comfortable."
p143
g2
(dp144
Vprobability
p145
(dp146
Vneg
p147
F0.5961134089966318
sVneutral
p148
F0.07435306413521879
sVpos
p149
F0.40388659100336827
ssVlabel
p150
Vneg
p151
stp152
a(S'Different. Like you.'
p153
g2
(dp154
Vprobability
p155
(dp156
Vneg
p157
F0.3716899961208925
sVneutral
p158
F0.17880158855062703
sVpos
p159
F0.6283100038791075
ssVlabel
p160
Vpos
p161
stp162
a(S'Shoes designed to move you.'
p163
g2
(dp164
Vprobability
p165
(dp166
Vneg
p167
F0.5896739328012113
sVneutral
p168
F0.6693778490088649
sVpos
p169
F0.4103260671987888
ssVlabel
p170
Vneutral
p171
stp172
a(S'Discover your world.'
p173
g2
(dp174
Vprobability
p175
(dp176
Vneg
p177
F0.4008722445716104
sVneutral
p178
F0.8777773826030274
sVpos
p179
F0.5991277554283896
ssVlabel
p180
Vneutral
p181
stp182
a(S'The Finest Walking Shoes On Earth.'
p183
g2
(dp184
Vprobability
p185
(dp186
Vneg
p187
F0.36440135571473653
sVneutral
p188
F0.6458427951034657
sVpos
p189
F0.6355986442852635
ssVlabel
p190
Vneutral
p191
stp192
a(S'Fashion is nothing without people.'
p193
g2
(dp194
Vprobability
p195
(dp196
Vneg
p197
F0.5823496944731767
sVneutral
p198
F0.4079150353105008
sVpos
p199
F0.4176503055268232
ssVlabel
p200
Vneg
p201
stp202
a(S'Keep it Simple.'
p203
g2
(dp204
Vprobability
p205
(dp206
Vneg
p207
F0.3952909110172227
sVneutral
p208
F0.3240081139439905
sVpos
p209
F0.6047090889827773
ssVlabel
p210
Vpos
p211
stp212
a(S'My bottoms are tops.'
p213
g13
(dp214
Vprobability
p215
(dp216
Vneg
p217
F0.5276583765273737
sVneutral
p218
F0.4912878772723766
sVpos
p219
F0.47234162347262626
ssVlabel
p220
Vneg
p221
stp222
a(S'The European Comfort Shoe.'
p223
g13
(dp224
Vprobability
p225
(dp226
Vneg
p227
F0.4106083780401648
sVneutral
p228
F0.7528201252848845
sVpos
p229
F0.5893916219598352
ssVlabel
p230
Vneutral
p231
stp232
a(S'The jeans that built America.'
p233
g2
(dp234
Vprobability
p235
(dp236
Vneg
p237
F0.5274205002636825
sVneutral
p238
F0.555923600502292
sVpos
p239
F0.4725794997363175
ssVlabel
p240
Vneutral
p241
stp242
a(S'A style for every story.'
p243
g2
(dp244
Vprobability
p245
(dp246
Vneg
p247
F0.47742746214355936
sVneutral
p248
F0.37279888705404846
sVpos
p249
F0.5225725378564406
ssVlabel
p250
Vpos
p251
stp252
a(S'Levis. Original Jeans. Original People.'
p253
g2
(dp254
Vprobability
p255
(dp256
Vneg
p257
F0.49986774676083
sVneutral
p258
F0.15984525632619748
sVpos
p259
F0.50013225323917
ssVlabel
p260
Vpos
p261
stp262
a(S'Quality never goes out of style.'
p263
g2
(dp264
Vprobability
p265
(dp266
Vneg
p267
F0.7291792415973789
sVneutral
p268
F0.40897076919543457
sVpos
p269
F0.2708207584026211
ssVlabel
p270
Vneg
p271
stp272
a(S"Let's get outside."
p273
g2
(dp274
Vprobability
p275
(dp276
Vneg
p277
F0.5740902146964348
sVneutral
p278
F0.494555417427803
sVpos
p279
F0.42590978530356516
ssVlabel
p280
Vneg
p281
stp282
a(S'Mustang Jeans never die. They just fade away.'
p283
g2
(dp284
Vprobability
p285
(dp286
Vneg
p287
F0.7487715561081449
sVneutral
p288
F0.7477546665656297
sVpos
p289
F0.25122844389185506
ssVlabel
p290
Vneutral
p291
stp292
a(S'Jewelry for your legs.'
p293
g2
(dp294
Vprobability
p295
(dp296
Vneg
p297
F0.4611170170243106
sVneutral
p298
F0.49574270116713876
sVpos
p299
F0.5388829829756894
ssVlabel
p300
Vpos
p301
stp302
a(S"Worn by the world's most precious feet."
p303
g2
(dp304
Vprobability
p305
(dp306
Vneg
p307
F0.23029260352360426
sVneutral
p308
F0.38501528876449687
sVpos
p309
F0.7697073964763957
ssVlabel
p310
Vpos
p311
stp312
a(S'Healthy shoes. Naturally beautiful.'
p313
g13
(dp314
Vprobability
p315
(dp316
Vneg
p317
F0.3182713663657315
sVneutral
p318
F0.5642683161297463
sVpos
p319
F0.6817286336342685
ssVlabel
p320
Vneutral
p321
stp322
a(S"Don't Wear It. Use It."
p323
g2
(dp324
Vprobability
p325
(dp326
Vneg
p327
F0.6136636557997922
sVneutral
p328
F0.3493391842016112
sVpos
p329
F0.3863363442002078
ssVlabel
p330
Vneg
p331
stp332
a(S'Make it better.'
p333
g13
(dp334
Vprobability
p335
(dp336
Vneg
p337
F0.36336352304484176
sVneutral
p338
F0.2166657271708936
sVpos
p339
F0.6366364769551582
ssVlabel
p340
Vpos
p341
stp342
a(S'Relentless by nature.'
p343
g2
(dp344
Vprobability
p345
(dp346
Vneg
p347
F0.471218768466395
sVneutral
p348
F0.5374459058452301
sVpos
p349
F0.528781231533605
ssVlabel
p350
Vneutral
p351
stp352
a(S"They don't quit."
p353
g2
(dp354
Vprobability
p355
(dp356
Vneg
p357
F0.6836861549801473
sVneutral
p358
F0.7700311336917182
sVpos
p359
F0.3163138450198527
ssVlabel
p360
Vneutral
p361
stp362
a(S"There's a bit of the West in all of us."
p363
g2
(dp364
Vprobability
p365
(dp366
Vneg
p367
F0.33596780038783836
sVneutral
p368
F0.35394648619037694
sVpos
p369
F0.6640321996121616
ssVlabel
p370
Vpos
p371
stp372
a(S'The finest Footwear for the Active lifestyle... '
p373
g13
(dp374
Vprobability
p375
(dp376
Vneg
p377
F0.31280681566063984
sVneutral
p378
F0.40601146128373405
sVpos
p379
F0.6871931843393602
ssVlabel
p380
Vpos
p381
stp382
a(S'The ultimate driving machine.'
p383
g2
(dp384
Vprobability
p385
(dp386
Vneg
p387
F0.5193467282845807
sVneutral
p388
F0.41113816340712867
sVpos
p389
F0.4806532717154193
ssVlabel
p390
Vneg
p391
stp392
a(S'Dress your lips in Armani.'
p393
g2
(dp394
Vprobability
p395
(dp396
Vneg
p397
F0.49304488802531965
sVneutral
p398
F0.6294705099309558
sVpos
p399
F0.5069551119746804
ssVlabel
p400
Vneutral
p401
stp402
a(S'Pretty attracts us. Beauty changes us. Be a force of beauty.'
p403
g2
(dp404
Vprobability
p405
(dp406
Vneg
p407
F0.3118455951397763
sVneutral
p408
F0.14442411212839026
sVpos
p409
F0.6881544048602237
ssVlabel
p410
Vpos
p411
stp412
a(S'The most colourful name in cosmetics.'
p413
g13
(dp414
Vprobability
p415
(dp416
Vneg
p417
F0.40363147984937453
sVneutral
p418
F0.4852780153577834
sVpos
p419
F0.5963685201506255
ssVlabel
p420
Vpos
p421
stp422
a(S'Laughter is the best cosmetic. So grin and wear it.'
p423
g2
(dp424
Vprobability
p425
(dp426
Vneg
p427
F0.18636212223786908
sVneutral
p428
F0.2494201401724245
sVpos
p429
F0.8136378777621309
ssVlabel
p430
Vpos
p431
stp432
a(S"Give us 5 minutes. We'll make you pretty poweful."
p433
g13
(dp434
Vprobability
p435
(dp436
Vneg
p437
F0.3635537971426187
sVneutral
p438
F0.0007134759997770102
sVpos
p439
F0.6364462028573813
ssVlabel
p440
Vpos
p441
stp442
a(S'Real women have curves.'
p443
g2
(dp444
Vprobability
p445
(dp446
Vneg
p447
F0.3973605176492634
sVneutral
p448
F0.39961684865151675
sVpos
p449
F0.6026394823507366
ssVlabel
p450
Vpos
p451
stp452
a(S'You are more beautiful than you think.'
p453
g2
(dp454
Vprobability
p455
(dp456
Vneg
p457
F0.32847462436470765
sVneutral
p458
F0.11083007425935298
sVpos
p459
F0.6715253756352924
ssVlabel
p460
Vpos
p461
stp462
a(S'Bringing the best to everyone we touch.'
p463
g13
(dp464
Vprobability
p465
(dp466
Vneg
p467
F0.07840849413059248
sVneutral
p468
F0.3076088410944923
sVpos
p469
F0.9215915058694075
ssVlabel
p470
Vpos
p471
stp472
a(S'Enjoy the stay. Love the shine.'
p473
g13
(dp474
Vprobability
p475
(dp476
Vneg
p477
F0.18136140824732394
sVneutral
p478
F0.2377710623326772
sVpos
p479
F0.8186385917526761
ssVlabel
p480
Vpos
p481
stp482
a(S'High drama for every single lash.'
p483
g2
(dp484
Vprobability
p485
(dp486
Vneg
p487
F0.5696899680765964
sVneutral
p488
F0.22375921991977565
sVpos
p489
F0.43031003192340356
ssVlabel
p490
Vneg
p491
stp492
a(S'More defined. More conditioned. More beautiful lashes.'
p493
g2
(dp494
Vprobability
p495
(dp496
Vneg
p497
F0.3261736400643336
sVneutral
p498
F0.28284188123948834
sVpos
p499
F0.6738263599356664
ssVlabel
p500
Vpos
p501
stp502
a(S"Because you're worth it."
p503
g2
(dp504
Vprobability
p505
(dp506
Vneg
p507
F0.3170765410236115
sVneutral
p508
F0.30384359834326163
sVpos
p509
F0.6829234589763885
ssVlabel
p510
Vpos
p511
stp512
a(S'Believe in Beauty.'
p513
g2
(dp514
Vprobability
p515
(dp516
Vneg
p517
F0.3540170297394972
sVneutral
p518
F0.625859237703383
sVpos
p519
F0.6459829702605028
ssVlabel
p520
Vneutral
p521
stp522
a(S'Makeup for all. All ages, all races, all sexes.'
p523
g13
(dp524
Vprobability
p525
(dp526
Vneg
p527
F0.3659936364750759
sVneutral
p528
F0.4148812847452444
sVpos
p529
F0.6340063635249241
ssVlabel
p530
Vpos
p531
stp532
a(S'The makeup of makeup artists.'
p533
g2
(dp534
Vprobability
p535
(dp536
Vneg
p537
F0.4976513279369066
sVneutral
p538
F0.614537101832409
sVpos
p539
F0.5023486720630934
ssVlabel
p540
Vneutral
p541
stp542
a(S"Maybe she's born with it. Maybe it's Maybelline."
p543
g2
(dp544
Vprobability
p545
(dp546
Vneg
p547
F0.4725017497387901
sVneutral
p548
F0.6706034217689693
sVpos
p549
F0.5274982502612099
ssVlabel
p550
Vneutral
p551
stp552
a(S'Rethink your lash look.'
p553
g13
(dp554
Vprobability
p555
(dp556
Vneg
p557
F0.4817200014364925
sVneutral
p558
F0.4216157909123255
sVpos
p559
F0.5182799985635075
ssVlabel
p560
Vpos
p561
stp562
a(S'Kiss your thin lips goodbye!'
p563
g2
(dp564
Vprobability
p565
(dp566
Vneg
p567
F0.6624256550846885
sVneutral
p568
F0.10698165575871482
sVpos
p569
F0.3375743449153115
ssVlabel
p570
Vneg
p571
stp572
a(S'Take your lashes to Luxurious Lengths.'
p573
g2
(dp574
Vprobability
p575
(dp576
Vneg
p577
F0.4497397354750423
sVneutral
p578
F0.4952503058907634
sVpos
p579
F0.5502602645249577
ssVlabel
p580
Vpos
p581
stp582
a(S'Twist. Glide. Shine.'
p583
g13
(dp584
Vprobability
p585
(dp586
Vneg
p587
F0.40692396116222107
sVneutral
p588
F0.4175776556132247
sVpos
p589
F0.5930760388377789
ssVlabel
p590
Vpos
p591
stp592
a(S'All the flavor of being a girl.'
p593
g13
(dp594
Vprobability
p595
(dp596
Vneg
p597
F0.46814115632639
sVneutral
p598
F0.6835944489688773
sVpos
p599
F0.53185884367361
ssVlabel
p600
Vneutral
p601
stp602
a(S'We only test on party animals.'
p603
g2
(dp604
Vprobability
p605
(dp606
Vneg
p607
F0.7259711850777111
sVneutral
p608
F0.4859817338883516
sVpos
p609
F0.274028814922289
ssVlabel
p610
Vneg
p611
stp612
a(S'Revitalizing beauty for your changing skin.'
p613
g13
(dp614
Vprobability
p615
(dp616
Vneg
p617
F0.30122599284521123
sVneutral
p618
F0.5685435846578769
sVpos
p619
F0.6987740071547888
ssVlabel
p620
Vneutral
p621
stp622
a(S'Glamorous everyday. Glamorous every way.'
p623
g2
(dp624
Vprobability
p625
(dp626
Vneg
p627
F0.33879142951223185
sVneutral
p628
F0.4360454258983288
sVpos
p629
F0.6612085704877682
ssVlabel
p630
Vpos
p631
stp632
a(S'Along the Highway to Anywhere.'
p633
g13
(dp634
Vprobability
p635
(dp636
Vneg
p637
F0.5965113011426499
sVneutral
p638
F0.6807113943984012
sVpos
p639
F0.40348869885735
ssVlabel
p640
Vneutral
p641
stp642
a(S'Coca-Cola... Makes Good Things Taste Better.'
p643
g2
(dp644
Vprobability
p645
(dp646
Vneg
p647
F0.4447134263570863
sVneutral
p648
F0.16567155238290524
sVpos
p649
F0.5552865736429137
ssVlabel
p650
Vpos
p651
stp652
a(S'Have a Coke and a Smile.'
p653
g13
(dp654
Vprobability
p655
(dp656
Vneg
p657
F0.3627127775281027
sVneutral
p658
F0.3469216949470441
sVpos
p659
F0.6372872224718973
ssVlabel
p660
Vpos
p661
stp662
a(S'Ice Cold Sunshine.'
p663
g2
(dp664
Vprobability
p665
(dp666
Vneg
p667
F0.6941179556887958
sVneutral
p668
F0.1851604664366261
sVpos
p669
F0.3058820443112042
ssVlabel
p670
Vneg
p671
stp672
a(S'It Had to Be Good to Get Where It Is.'
p673
g2
(dp674
Vprobability
p675
(dp676
Vneg
p677
F0.5418512096729255
sVneutral
p678
F0.25594252900971726
sVpos
p679
F0.4581487903270744
ssVlabel
p680
Vneg
p681
stp682
a(S'Official Soft Drink of Summer.'
p683
g13
(dp684
Vprobability
p685
(dp686
Vneg
p687
F0.474921038923678
sVneutral
p688
F0.5443927038155563
sVpos
p689
F0.525078961076322
ssVlabel
p690
Vneutral
p691
stp692
a(S'Red, White & You.'
p693
g2
(dp694
Vprobability
p695
(dp696
Vneg
p697
F0.42163012188899185
sVneutral
p698
F0.4638578767563237
sVpos
p699
F0.5783698781110082
ssVlabel
p700
Vpos
p701
stp702
a(S'The Coke Side of Life.'
p703
g13
(dp704
Vprobability
p705
(dp706
Vneg
p707
F0.5010318886457312
sVneutral
p708
F0.7076477416459355
sVpos
p709
F0.49896811135426883
ssVlabel
p710
Vneutral
p711
stp712
a(S'The Only Thing Like Coca-Cola is Coca-Cola Itself.'
p713
g13
(dp714
Vprobability
p715
(dp716
Vneg
p717
F0.7232833828078085
sVneutral
p718
F0.04677602082055705
sVpos
p719
F0.27671661719219154
ssVlabel
p720
Vneg
p721
stp722
a(S'The Pause that Refreshes.'
p723
g13
(dp724
Vprobability
p725
(dp726
Vneg
p727
F0.48428634291954864
sVneutral
p728
F0.5665699323347645
sVpos
p729
F0.5157136570804514
ssVlabel
p730
Vneutral
p731
stp732
a(S'Thirst Knows No Season.'
p733
g2
(dp734
Vprobability
p735
(dp736
Vneg
p737
F0.5059604569519297
sVneutral
p738
F0.55154294401862
sVpos
p739
F0.4940395430480703
ssVlabel
p740
Vneutral
p741
stp742
a(S"We've Got a Taste for You."
p743
g2
(dp744
Vprobability
p745
(dp746
Vneg
p747
F0.5471721221425782
sVneutral
p748
F0.3544563669166985
sVpos
p749
F0.45282787785742185
ssVlabel
p750
Vneg
p751
stp752
a(S"When Coca-Cola is a Part of Your Life, You Can't Beat the Feeling."
p753
g13
(dp754
Vprobability
p755
(dp756
Vneg
p757
F0.41025661122807155
sVneutral
p758
F0.4255744431886926
sVpos
p759
F0.5897433887719284
ssVlabel
p760
Vpos
p761
stp762
a(S"Where There's Coke There's Hospitality."
p763
g2
(dp764
Vprobability
p765
(dp766
Vneg
p767
F0.5895754287763024
sVneutral
p768
F0.4452609167474886
sVpos
p769
F0.4104245712236975
ssVlabel
p770
Vneg
p771
stp772
a(S"You Can't Beat the Real Thing."
p773
g2
(dp774
Vprobability
p775
(dp776
Vneg
p777
F0.47651798084888797
sVneutral
p778
F0.3133017854522333
sVpos
p779
F0.523482019151112
ssVlabel
p780
Vpos
p781
stp782
a(S'Gatorade. Is it in you?'
p783
g13
(dp784
Vprobability
p785
(dp786
Vneg
p787
F0.5457699746399476
sVneutral
p788
F0.37805784475127857
sVpos
p789
F0.45423002536005247
ssVlabel
p790
Vneg
p791
stp792
a(S"Life's a sport. Drink it up."
p793
g2
(dp794
Vprobability
p795
(dp796
Vneg
p797
F0.3825902121863619
sVneutral
p798
F0.4480287251558697
sVpos
p799
F0.6174097878136381
ssVlabel
p800
Vpos
p801
stp802
a(S"An ice cold Pepsi. It's better than sex!"
p803
g2
(dp804
Vprobability
p805
(dp806
Vneg
p807
F0.5173708914457826
sVneutral
p808
F0.0916063999393834
sVpos
p809
F0.4826291085542173
ssVlabel
p810
Vneg
p811
stp812
a(S'Be Young, Have Fun, Drink Pepsi.'
p813
g13
(dp814
Vprobability
p815
(dp816
Vneg
p817
F0.3340513696601709
sVneutral
p818
F0.30158500572081776
sVpos
p819
F0.6659486303398291
ssVlabel
p820
Vpos
p821
stp822
a(S'Bigger Drink, Better Taste.'
p823
g2
(dp824
Vprobability
p825
(dp826
Vneg
p827
F0.4936254128098756
sVneutral
p828
F0.23074042980349127
sVpos
p829
F0.5063745871901244
ssVlabel
p830
Vpos
p831
stp832
a(S'Every Generation Refreshes the World.'
p833
g13
(dp834
Vprobability
p835
(dp836
Vneg
p837
F0.3624591693243441
sVneutral
p838
F0.7014328362060844
sVpos
p839
F0.6375408306756559
ssVlabel
p840
Vneutral
p841
stp842
a(S'For Those Who Think Young.'
p843
g2
(dp844
Vprobability
p845
(dp846
Vneg
p847
F0.44579651370982876
sVneutral
p848
F0.5284550933861838
sVpos
p849
F0.5542034862901712
ssVlabel
p850
Vneutral
p851
stp852
a(S"Pepsi's got your taste for life."
p853
g13
(dp854
Vprobability
p855
(dp856
Vneg
p857
F0.5396825536685197
sVneutral
p858
F0.7630193372774755
sVpos
p859
F0.4603174463314803
ssVlabel
p860
Vneutral
p861
stp862
a(S'Summer Time is Pepsi Time.'
p863
g2
(dp864
Vprobability
p865
(dp866
Vneg
p867
F0.43079964634525636
sVneutral
p868
F0.5267534328139888
sVpos
p869
F0.5692003536547436
ssVlabel
p870
Vneutral
p871
stp872
a(S"Taste the one that's forever young."
p873
g2
(dp874
Vprobability
p875
(dp876
Vneg
p877
F0.3636550536498202
sVneutral
p878
F0.34402932932223745
sVpos
p879
F0.6363449463501798
ssVlabel
p880
Vpos
p881
stp882
a(S'The Best Drink Created Worldwide.'
p883
g13
(dp884
Vprobability
p885
(dp886
Vneg
p887
F0.14923850972251607
sVneutral
p888
F0.5376497599401406
sVpos
p889
F0.8507614902774839
ssVlabel
p890
Vneutral
p891
stp892
a(S'The Sociables Prefer Pepsi.'
p893
g13
(dp894
Vprobability
p895
(dp896
Vneg
p897
F0.3882261542908877
sVneutral
p898
F0.5581438086159347
sVpos
p899
F0.6117738457091123
ssVlabel
p900
Vneutral
p901
stp902
a(S"Where there's Pepsi, there's music."
p903
g13
(dp904
Vprobability
p905
(dp906
Vneg
p907
F0.4199522339997279
sVneutral
p908
F0.4169030791441936
sVpos
p909
F0.5800477660002721
ssVlabel
p910
Vpos
p911
stp912
a(S"Why Take Less When Pepsi's Best?"
p913
g2
(dp914
Vprobability
p915
(dp916
Vneg
p917
F0.4766330121009613
sVneutral
p918
F0.37868790358813254
sVpos
p919
F0.5233669878990387
ssVlabel
p920
Vpos
p921
stp922
a(S'Fast food for fast times.'
p923
g2
(dp924
Vprobability
p925
(dp926
Vneg
p927
F0.40218446956037723
sVneutral
p928
F0.27976707567236464
sVpos
p929
F0.5978155304396228
ssVlabel
p930
Vpos
p931
stp932
a(S"We do it like you'd do it."
p933
g13
(dp934
Vprobability
p935
(dp936
Vneg
p937
F0.4908677938906124
sVneutral
p938
F0.33582047466054593
sVpos
p939
F0.5091322061093876
ssVlabel
p940
Vpos
p941
stp942
a(S"America runs on Dunkin'"
p943
g2
(dp944
Vprobability
p945
(dp946
Vneg
p947
F0.49700156927975025
sVneutral
p948
F0.7762717603238122
sVpos
p949
F0.5029984307202497
ssVlabel
p950
Vneutral
p951
stp952
a(S"When you're crazy for chicken."
p953
g2
(dp954
Vprobability
p955
(dp956
Vneg
p957
F0.5198750805483359
sVneutral
p958
F0.08994155992587742
sVpos
p959
F0.4801249194516641
ssVlabel
p960
Vneg
p961
stp962
a(S'Come hungry. Leave happy.'
p963
g2
(dp964
Vprobability
p965
(dp966
Vneg
p967
F0.3461690584489604
sVneutral
p968
F0.3237698464875265
sVpos
p969
F0.6538309415510396
ssVlabel
p970
Vpos
p971
stp972
a(S'Melts in your mouth, not in your hand.'
p973
g2
(dp974
Vprobability
p975
(dp976
Vneg
p977
F0.5469772768476371
sVneutral
p978
F0.43258702513387254
sVpos
p979
F0.45302272315236297
ssVlabel
p980
Vneg
p981
stp982
a(S"I'm lovin' it."
p983
g2
(dp984
Vprobability
p985
(dp986
Vneg
p987
F0.5623577878534922
sVneutral
p988
F0.349692118846677
sVpos
p989
F0.43764221214650784
ssVlabel
p990
Vneg
p991
stp992
a(S"Makin' it great again and again."
p993
g13
(dp994
Vprobability
p995
(dp996
Vneg
p997
F0.3316916569302133
sVneutral
p998
F0.14776918296837363
sVpos
p999
F0.6683083430697867
ssVlabel
p1000
Vpos
p1001
stp1002
a(S'Think outside the bun.'
p1003
g2
(dp1004
Vprobability
p1005
(dp1006
Vneg
p1007
F0.5255896316703956
sVneutral
p1008
F0.7093876872829016
sVpos
p1009
F0.4744103683296043
ssVlabel
p1010
Vneutral
p1011
stp1012
a(S'Quality is our recipe.'
p1013
g2
(dp1014
Vprobability
p1015
(dp1016
Vneg
p1017
F0.36943335233466823
sVneutral
p1018
F0.4754161200618749
sVpos
p1019
F0.6305666476653318
ssVlabel
p1020
Vpos
p1021
stp1022
a(S'The ultimate code of seduction for men.'
p1023
g2
(dp1024
Vprobability
p1025
(dp1026
Vneg
p1027
F0.49224663563356785
sVneutral
p1028
F0.4941971560556371
sVpos
p1029
F0.5077533643664321
ssVlabel
p1030
Vpos
p1031
stp1032
a(S'No bottles to break - just hearts.'
p1033
g2
(dp1034
Vprobability
p1035
(dp1036
Vneg
p1037
F0.5577585099475657
sVneutral
p1038
F0.7704073745636256
sVpos
p1039
F0.44224149005243424
ssVlabel
p1040
Vneutral
p1041
stp1042
a(S'The greatest freedom is to believe in yourself.'
p1043
g2
(dp1044
Vprobability
p1045
(dp1046
Vneg
p1047
F0.12887630133963746
sVneutral
p1048
F0.36096918333466627
sVpos
p1049
F0.8711236986603625
ssVlabel
p1050
Vpos
p1051
stp1052
a(S'Between love and madness lies obsession.'
p1053
g2
(dp1054
Vprobability
p1055
(dp1056
Vneg
p1057
F0.2335097298851545
sVneutral
p1058
F0.649165783956058
sVpos
p1059
F0.7664902701148455
ssVlabel
p1060
Vneutral
p1061
stp1062
a(S'I am made of blue sky and golden light, and I will feel this way forever... share the fantasy.'
p1063
g13
(dp1064
Vprobability
p1065
(dp1066
Vneg
p1067
F0.2075703474803141
sVneutral
p1068
F0.25864698022274685
sVpos
p1069
F0.7924296525196859
ssVlabel
p1070
Vpos
p1071
stp1072
a(S'Do you dare?'
p1073
g2
(dp1074
Vprobability
p1075
(dp1076
Vneg
p1077
F0.5426772743931136
sVneutral
p1078
F0.36405788920413024
sVpos
p1079
F0.45732272560688636
ssVlabel
p1080
Vneg
p1081
stp1082
a(S'The power of cool.'
p1083
g2
(dp1084
Vprobability
p1085
(dp1086
Vneg
p1087
F0.2856849865931248
sVneutral
p1088
F0.3889657921804699
sVpos
p1089
F0.7143150134068752
ssVlabel
p1090
Vpos
p1091
stp1092
a(S'So delicate. So beautiful.'
p1093
g2
(dp1094
Vprobability
p1095
(dp1096
Vneg
p1097
F0.333017979051742
sVneutral
p1098
F0.18062509781449995
sVpos
p1099
F0.666982020948258
ssVlabel
p1100
Vpos
p1101
stp1102
a(S'Whoever loves me will follow.'
p1103
g2
(dp1104
Vprobability
p1105
(dp1106
Vneg
p1107
F0.34932218141527527
sVneutral
p1108
F0.4504918808669813
sVpos
p1109
F0.6506778185847247
ssVlabel
p1110
Vpos
p1111
stp1112
a(S'HUGO is trend, HUGO is different, HUGO is urban.'
p1113
g13
(dp1114
Vprobability
p1115
(dp1116
Vneg
p1117
F0.33768019893058954
sVneutral
p1118
F0.6862195424822612
sVpos
p1119
F0.6623198010694105
ssVlabel
p1120
Vneutral
p1121
stp1122
a(S'Let desire lead you.'
p1123
g2
(dp1124
Vprobability
p1125
(dp1126
Vneg
p1127
F0.4522853271654863
sVneutral
p1128
F0.47846004325047664
sVpos
p1129
F0.5477146728345137
ssVlabel
p1130
Vpos
p1131
stp1132
a(S'Every woman has two sides.'
p1133
g2
(dp1134
Vprobability
p1135
(dp1136
Vneg
p1137
F0.4777561453231849
sVneutral
p1138
F0.7433554587215948
sVpos
p1139
F0.5222438546768151
ssVlabel
p1140
Vneutral
p1141
stp1142
a(S'Never resist the call of the game.'
p1143
g2
(dp1144
Vprobability
p1145
(dp1146
Vneg
p1147
F0.4244332936210625
sVneutral
p1148
F0.6858442715715348
sVpos
p1149
F0.5755667063789375
ssVlabel
p1150
Vneutral
p1151
stp1152
a(S'The fragrance larger than life.'
p1153
g2
(dp1154
Vprobability
p1155
(dp1156
Vneg
p1157
F0.38355244243384123
sVneutral
p1158
F0.256318621650522
sVpos
p1159
F0.6164475575661588
ssVlabel
p1160
Vpos
p1161
stp1162
a(S"I can't seem to forget you, your wind song stays on in my mind."
p1163
g13
(dp1164
Vprobability
p1165
(dp1166
Vneg
p1167
F0.6735002703712789
sVneutral
p1168
F0.3057503675075219
sVpos
p1169
F0.3264997296287211
ssVlabel
p1170
Vneg
p1171
stp1172
a(S'The Greatest Mother in the World.'
p1173
g13
(dp1174
Vprobability
p1175
(dp1176
Vneg
p1177
F0.14491417978873056
sVneutral
p1178
F0.5720703155270087
sVpos
p1179
F0.8550858202112694
ssVlabel
p1180
Vneutral
p1181
stp1182
a(S'The greatest tragedy is indifference.'
p1183
g2
(dp1184
Vprobability
p1185
(dp1186
Vneg
p1187
F0.1878637559545977
sVneutral
p1188
F0.25803678763508114
sVpos
p1189
F0.8121362440454023
ssVlabel
p1190
Vpos
p1191
stp1192
a(S'We cannot all serve in the trenches, but we can all serve at home.'
p1193
g13
(dp1194
Vprobability
p1195
(dp1196
Vneg
p1197
F0.6016749433729454
sVneutral
p1198
F0.6630673891300192
sVpos
p1199
F0.3983250566270546
ssVlabel
p1200
Vneutral
p1201
stp1202
a(S'For people who do not go with the times.'
p1203
g2
(dp1204
Vprobability
p1205
(dp1206
Vneg
p1207
F0.5498701328312512
sVneutral
p1208
F0.49847692182099995
sVpos
p1209
F0.45012986716874875
ssVlabel
p1210
Vneg
p1211
stp1212
a(S'Ebel. The architects of time.'
p1213
g2
(dp1214
Vprobability
p1215
(dp1216
Vneg
p1217
F0.5292792741464798
sVneutral
p1218
F0.5526099374673014
sVpos
p1219
F0.47072072585352026
ssVlabel
p1220
Vneutral
p1221
stp1222
a(S'Time always has a before and an after.'
p1223
g2
(dp1224
Vprobability
p1225
(dp1226
Vneg
p1227
F0.41517259166997744
sVneutral
p1228
F0.8938998055503259
sVpos
p1229
F0.5848274083300226
ssVlabel
p1230
Vneutral
p1231
stp1232
a(S'The Watch that Made the Dollar Famous.'
p1233
g13
(dp1234
Vprobability
p1235
(dp1236
Vneg
p1237
F0.34632155793799224
sVneutral
p1238
F0.13596430339132395
sVpos
p1239
F0.6536784420620078
ssVlabel
p1240
Vpos
p1241
stp1242
a(S'Since 1868. And for as long as there are men.'
p1243
g2
(dp1244
Vprobability
p1245
(dp1246
Vneg
p1247
F0.42890251173614846
sVneutral
p1248
F0.3365971332215778
sVpos
p1249
F0.5710974882638515
ssVlabel
p1250
Vpos
p1251
stp1252
a(S'Elegance is an Attitude.'
p1253
g2
(dp1254
Vprobability
p1255
(dp1256
Vneg
p1257
F0.3337487373686614
sVneutral
p1258
F0.6353775289737401
sVpos
p1259
F0.6662512626313386
ssVlabel
p1260
Vneutral
p1261
stp1262
a(S'Capture the classic spirit of Longines.'
p1263
g13
(dp1264
Vprobability
p1265
(dp1266
Vneg
p1267
F0.25194857404307125
sVneutral
p1268
F0.4635576707089289
sVpos
p1269
F0.7480514259569288
ssVlabel
p1270
Vpos
p1271
stp1272
a(S'Omega. The right time for life.'
p1273
g13
(dp1274
Vprobability
p1275
(dp1276
Vneg
p1277
F0.3186722777627006
sVneutral
p1278
F0.5103469981820118
sVpos
p1279
F0.6813277222372994
ssVlabel
p1280
Vneutral
p1281
stp1282
a(S'Omega. The sign of excellence.'
p1283
g2
(dp1284
Vprobability
p1285
(dp1286
Vneg
p1287
F0.5896716609262922
sVneutral
p1288
F0.6116118923555046
sVpos
p1289
F0.41032833907370775
ssVlabel
p1290
Vneutral
p1291
stp1292
a(S'Significant Moments.'
p1293
g13
(dp1294
Vprobability
p1295
(dp1296
Vneg
p1297
F0.4441677023973344
sVneutral
p1298
F0.11614678290753595
sVpos
p1299
F0.5558322976026656
ssVlabel
p1300
Vpos
p1301
stp1302
a(S'The link between the past and the future.'
p1303
g2
(dp1304
Vprobability
p1305
(dp1306
Vneg
p1307
F0.4194447174586471
sVneutral
p1308
F0.842085203653652
sVpos
p1309
F0.5805552825413529
ssVlabel
p1310
Vneutral
p1311
stp1312
a(S'The Watch The World Has Learned To Trust.'
p1313
g13
(dp1314
Vprobability
p1315
(dp1316
Vneg
p1317
F0.42248019511698254
sVneutral
p1318
F0.8513429120442714
sVpos
p1319
F0.5775198048830175
ssVlabel
p1320
Vneutral
p1321
stp1322
a(S'Time to celebrate.'
p1323
g13
(dp1324
Vprobability
p1325
(dp1326
Vneg
p1327
F0.42426345082141526
sVneutral
p1328
F0.7899564969668699
sVpos
p1329
F0.5757365491785847
ssVlabel
p1330
Vneutral
p1331
stp1332
a(S'Fashion that ticks.'
p1333
g2
(dp1334
Vprobability
p1335
(dp1336
Vneg
p1337
F0.48734679678917625
sVneutral
p1338
F0.47302631499384346
sVpos
p1339
F0.5126532032108237
ssVlabel
p1340
Vpos
p1341
stp1342
a(S'Time is what you make of it.'
p1343
g2
(dp1344
Vprobability
p1345
(dp1346
Vneg
p1347
F0.3665004446092739
sVneutral
p1348
F0.36113936889892684
sVpos
p1349
F0.6334995553907261
ssVlabel
p1350
Vpos
p1351
stp1352
a(S'You have a second home, why not a second watch?'
p1353
g13
(dp1354
Vprobability
p1355
(dp1356
Vneg
p1357
F0.7024848576806613
sVneutral
p1358
F0.3416894919192362
sVpos
p1359
F0.29751514231933873
ssVlabel
p1360
Vneg
p1361
stp1362
a(S"Don't crack under pressure."
p1363
g13
(dp1364
Vprobability
p1365
(dp1366
Vneg
p1367
F0.5073906486012487
sVneutral
p1368
F0.48612657634242246
sVpos
p1369
F0.49260935139875134
ssVlabel
p1370
Vneg
p1371
stp1372
a(S"Success. It's a mind game."
p1373
g2
(dp1374
Vprobability
p1375
(dp1376
Vneg
p1377
F0.45216759351819147
sVneutral
p1378
F0.3417267705296228
sVpos
p1379
F0.5478324064818085
ssVlabel
p1380
Vpos
p1381
stp1382
a(S'Swiss Avant-Garde since 1860.'
p1383
g13
(dp1384
Vprobability
p1385
(dp1386
Vneg
p1387
F0.4966596589382727
sVneutral
p1388
F0.7911042859456843
sVpos
p1389
F0.5033403410617273
ssVlabel
p1390
Vneutral
p1391
stp1392
a(S'What are you made of?'
p1393
g2
(dp1394
Vprobability
p1395
(dp1396
Vneg
p1397
F0.37337640521467885
sVneutral
p1398
F0.4488224689498585
sVpos
p1399
F0.6266235947853211
ssVlabel
p1400
Vpos
p1401
stp1402
a.