(lp0
(S'The Fat Cat Sings Songs Very Loudly.'
p1
S'N'
p2
(dp3
Vprobability
p4
(dp5
Vneg
p6
F0.437353283671182
sVneutral
p7
F0.5525733305336334
sVpos
p8
F0.562646716328818
ssVlabel
p9
Vneutral
p10
stp11
a(S'Oh Be A Fine Girl, Kiss Me Right Now (Smack)'
p12
S'M'
p13
(dp14
Vprobability
p15
(dp16
Vneg
p17
F0.4568349788667405
sVneutral
p18
F0.19415778097853198
sVpos
p19
F0.5431650211332595
ssVlabel
p20
Vpos
p21
stp22
a(S'My Very Easy Memory Jingle Seems Useful Naming Planets.'
p23
g2
(dp24
Vprobability
p25
(dp26
Vneg
p27
F0.3394921281815202
sVneutral
p28
F0.19045017859696958
sVpos
p29
F0.6605078718184798
ssVlabel
p30
Vpos
p31
stp32
a(S'My Very Educated Mother Just Served Us Nachos.'
p33
g13
(dp34
Vprobability
p35
(dp36
Vneg
p37
F0.3699903128213723
sVneutral
p38
F0.40350654565224464
sVpos
p39
F0.6300096871786277
ssVlabel
p40
Vpos
p41
stp42
a(S'Many Very Educated Men Justify Stealing Unique Ninth.'
p43
g2
(dp44
Vprobability
p45
(dp46
Vneg
p47
F0.40969898011879646
sVneutral
p48
F0.24047958766587274
sVpos
p49
F0.5903010198812035
ssVlabel
p50
Vpos
p51
stp52
a(S'My Very Earnest Mother Just Showed Us Nine Planets.'
p53
g13
(dp54
Vprobability
p55
(dp56
Vneg
p57
F0.5110144717689342
sVneutral
p58
F0.28068040084729673
sVpos
p59
F0.4889855282310658
ssVlabel
p60
Vneg
p61
stp62
a(S'My Very Easy Method Just Speeds Up Naming Planets.'
p63
g2
(dp64
Vprobability
p65
(dp66
Vneg
p67
F0.3102524323416771
sVneutral
p68
F0.009547725528001207
sVpos
p69
F0.6897475676583229
ssVlabel
p70
Vpos
p71
stp72
a(S'My Very Educated Mother Just Served Us Nine Pies.'
p73
g13
(dp74
Vprobability
p75
(dp76
Vneg
p77
F0.3473962830060118
sVneutral
p78
F0.4879580787960858
sVpos
p79
F0.6526037169939882
ssVlabel
p80
Vpos
p81
stp82
a(S'Mary Visits Every Monday Just Stays Until Noon Period.'
p83
g2
(dp84
Vprobability
p85
(dp86
Vneg
p87
F0.4940710522638767
sVneutral
p88
F0.7530789309969806
sVpos
p89
F0.5059289477361233
ssVlabel
p90
Vneutral
p91
stp92
a(S'My Very Educated Mother Just Said Uh-oh! No Pluto.'
p93
g13
(dp94
Vprobability
p95
(dp96
Vneg
p97
F0.7418525512340701
sVneutral
p98
F0.26653131187408935
sVpos
p99
F0.25814744876592993
ssVlabel
p100
Vneg
p101
stp102
a(S'Dear King Philip Come Over For Good Spaghetti.'
p103
g13
(dp104
Vprobability
p105
(dp106
Vneg
p107
F0.4474169659878331
sVneutral
p108
F0.26492373228894533
sVpos
p109
F0.5525830340121669
ssVlabel
p110
Vpos
p111
stp112
a(S'Dumb Kids Prefer Candy Over Fancy Green Salad.'
p113
g13
(dp114
Vprobability
p115
(dp116
Vneg
p117
F0.5480851849703592
sVneutral
p118
F0.26661652474339176
sVpos
p119
F0.45191481502964076
ssVlabel
p120
Vneg
p121
stp122
a(S'Dumb Kids Playing Catch On Freeway Get Squashed.'
p123
g2
(dp124
Vprobability
p125
(dp126
Vneg
p127
F0.6611347251247474
sVneutral
p128
F0.32432646242115976
sVpos
p129
F0.33886527487525264
ssVlabel
p130
Vneg
p131
stp132
a(S'Dirty, Kinky People Can Often Find Great Sex.'
p133
g13
(dp134
Vprobability
p135
(dp136
Vneg
p137
F0.3750888563005683
sVneutral
p138
F0.17081723184648992
sVpos
p139
F0.6249111436994317
ssVlabel
p140
Vpos
p141
stp142
a(S'Idiotic Penguins Make Antarctica Too Cold.'
p143
g2
(dp144
Vprobability
p145
(dp146
Vneg
p147
F0.7764379476595846
sVneutral
p148
F0.09191739191985175
sVpos
p149
F0.22356205234041537
ssVlabel
p150
Vneg
p151
stp152
a(S'I Pee More After Tea Constantly.'
p153
g13
(dp154
Vprobability
p155
(dp156
Vneg
p157
F0.47645713927477984
sVneutral
p158
F0.24886745695492776
sVpos
p159
F0.5235428607252202
ssVlabel
p160
Vpos
p161
stp162
a(S'Movement; Respiration; Sensation; Growth; Reproduction; Excretion; Nutrition.'
p163
g2
(dp164
Vprobability
p165
(dp166
Vneg
p167
F0.3751710784073139
sVneutral
p168
F0.70675462149298
sVpos
p169
F0.6248289215926861
ssVlabel
p170
Vneutral
p171
stp172
a(S'Rude penguins irritate old dying seals.'
p173
g13
(dp174
Vprobability
p175
(dp176
Vneg
p177
F0.6368938379333369
sVneutral
p178
F0.6065508180597212
sVpos
p179
F0.3631061620666631
ssVlabel
p180
Vneutral
p181
stp182
a(S'Real pyros ignite objects during sex.'
p183
g13
(dp184
Vprobability
p185
(dp186
Vneg
p187
F0.5186836026606172
sVneutral
p188
F0.7439363578743086
sVpos
p189
F0.48131639733938275
ssVlabel
p190
Vneutral
p191
stp192
a(S'Risque people invite others down stairs.'
p193
g2
(dp194
Vprobability
p195
(dp196
Vneg
p197
F0.4831904063912067
sVneutral
p198
F0.6152893643597931
sVpos
p199
F0.5168095936087933
ssVlabel
p200
Vneutral
p201
stp202
a(S'My Enormous Penguin Bounces Pretty High.'
p203
g13
(dp204
Vprobability
p205
(dp206
Vneg
p207
F0.4440255011498887
sVneutral
p208
F0.09721093465571241
sVpos
p209
F0.5559744988501113
ssVlabel
p210
Vpos
p211
stp212
a(S'Please Send Cats, Monkeys And Zebras In Large Cages Make Sure Padlocked.'
p213
g2
(dp214
Vprobability
p215
(dp216
Vneg
p217
F0.5212920440514788
sVneutral
p218
F0.37318043166116216
sVpos
p219
F0.47870795594852117
ssVlabel
p220
Vneg
p221
stp222
a(S"Harry He Likes Beer Bottle Cold, Not Over Frothy. Nelly's Nanny Might, Although Silly Person, She Climbs Around Kinky Caves."
p223
g2
(dp224
Vprobability
p225
(dp226
Vneg
p227
F0.7273785850999278
sVneutral
p228
F0.5120190500055267
sVpos
p229
F0.2726214149000722
ssVlabel
p230
Vneutral
p231
stp232
a(S'He Has Light Brain But Can Not Offer Full Nine Subjects, May All Senior Professional Scientists Come And Protect Chemistry.'
p233
g2
(dp234
Vprobability
p235
(dp236
Vneg
p237
F0.4196264134959944
sVneutral
p238
F0.7876054070284705
sVpos
p239
F0.5803735865040056
ssVlabel
p240
Vneutral
p241
stp242
a(S'All Altruists Gladly Make Gum In Gallon Tanks.'
p243
g13
(dp244
Vprobability
p245
(dp246
Vneg
p247
F0.6258456914670485
sVneutral
p248
F0.5810843617054209
sVpos
p249
F0.3741543085329515
ssVlabel
p250
Vneutral
p251
stp252
a(S'Have No Fear Of Ice Cold Beer.'
p253
g13
(dp254
Vprobability
p255
(dp256
Vneg
p257
F0.7994856705443905
sVneutral
p258
F0.493767416222451
sVpos
p259
F0.20051432945560954
ssVlabel
p260
Vneg
p261
stp262
a(S"Really Great Kings Don't Forget Birthdays."
p263
g13
(dp264
Vprobability
p265
(dp266
Vneg
p267
F0.3280356509139213
sVneutral
p268
F0.04720056875978464
sVpos
p269
F0.6719643490860787
ssVlabel
p270
Vpos
p271
stp272
a(S'Spring forward. Fall back.'
p273
g2
(dp274
Vprobability
p275
(dp276
Vneg
p277
F0.5157479189535354
sVneutral
p278
F0.8112985222800613
sVpos
p279
F0.48425208104646456
ssVlabel
p280
Vneutral
p281
stp282
a(S'Spring ahead, Fall behind.'
p283
g13
(dp284
Vprobability
p285
(dp286
Vneg
p287
F0.5176291253393652
sVneutral
p288
F0.6171036511857476
sVpos
p289
F0.4823708746606347
ssVlabel
p290
Vneutral
p291
stp292
a(S'Please Do Not Throw Sausage Pizza Away.'
p293
g13
(dp294
Vprobability
p295
(dp296
Vneg
p297
F0.7308581825262557
sVneutral
p298
F0.4902033240294548
sVpos
p299
F0.2691418174737443
ssVlabel
p300
Vneg
p301
stp302
a(S'Programmers Like Networks That Seldom Postpone Anything.'
p303
g2
(dp304
Vprobability
p305
(dp306
Vneg
p307
F0.5023424702792254
sVneutral
p308
F0.3864749575367945
sVpos
p309
F0.4976575297207746
ssVlabel
p310
Vneg
p311
stp312
a(S'All People Seem To Need Data Processing.'
p313
g2
(dp314
Vprobability
p315
(dp316
Vneg
p317
F0.6140139535897229
sVneutral
p318
F0.6565536735141021
sVpos
p319
F0.38598604641027706
ssVlabel
p320
Vneutral
p321
stp322
a(S'Do Some People Fear Binary?'
p323
g13
(dp324
Vprobability
p325
(dp326
Vneg
p327
F0.5690126953698127
sVneutral
p328
F0.681774447727196
sVpos
p329
F0.43098730463018736
ssVlabel
p330
Vneutral
p331
stp332
a(S'Raising Elephants Is So Utterly Boring.'
p333
g2
(dp334
Vprobability
p335
(dp336
Vneg
p337
F0.9042998858417762
sVneutral
p338
F0.022355879559348674
sVpos
p339
F0.09570011415822374
ssVlabel
p340
Vneg
p341
stp342
a(S'Reboot Even If System Utterly Broken.'
p343
g13
(dp344
Vprobability
p345
(dp346
Vneg
p347
F0.5486573546751492
sVneutral
p348
F0.3062294368427329
sVpos
p349
F0.45134264532485074
ssVlabel
p350
Vneg
p351
stp352
a(S'Keep calm at all sporting events.'
p353
g13
(dp354
Vprobability
p355
(dp356
Vneg
p357
F0.4648803721677661
sVneutral
p358
F0.319846389533683
sVpos
p359
F0.5351196278322339
ssVlabel
p360
Vpos
p361
stp362
a(S'Big brown rabbits often yield great big vocal groans when gingerly slapped.'
p363
g2
(dp364
Vprobability
p365
(dp366
Vneg
p367
F0.38383352950404015
sVneutral
p368
F0.3002818697259676
sVpos
p369
F0.6161664704959599
ssVlabel
p370
Vpos
p371
stp372
a(S'Bad boys run our young girls behind victory garden walls.'
p373
g2
(dp374
Vprobability
p375
(dp376
Vneg
p377
F0.6604563124198441
sVneutral
p378
F0.7382062837335698
sVpos
p379
F0.33954368758015585
ssVlabel
p380
Vneutral
p381
stp382
a(S'B.B.ROY Going to Bombay Via Gate Way of India.'
p383
g13
(dp384
Vprobability
p385
(dp386
Vneg
p387
F0.501289004267107
sVneutral
p388
F0.92748632607259
sVpos
p389
F0.498710995732893
ssVlabel
p390
Vneutral
p391
stp392
a(S'Righty tighty, lefty loosey.'
p393
g13
(dp394
Vprobability
p395
(dp396
Vneg
p397
F0.5095519989067516
sVneutral
p398
F0.5225935369314391
sVpos
p399
F0.4904480010932484
ssVlabel
p400
Vneutral
p401
stp402
a(S'OSASCOMP.'
p403
g2
(dp404
Vprobability
p405
(dp406
Vneg
p407
F0.5095519989067516
sVneutral
p408
F0.5950890614040548
sVpos
p409
F0.4904480010932484
ssVlabel
p410
Vneutral
p411
stp412
a(S'Lat is Fat.'
p413
g13
(dp414
Vprobability
p415
(dp416
Vneg
p417
F0.5815379052689555
sVneutral
p418
F0.5981323634334897
sVpos
p419
F0.41846209473104445
ssVlabel
p420
Vneutral
p421
stp422
a(S'HOMES.'
p423
g2
(dp424
Vprobability
p425
(dp426
Vneg
p427
F0.4534268108211694
sVneutral
p428
F0.5950890614040548
sVpos
p429
F0.5465731891788306
ssVlabel
p430
Vneutral
p431
stp432
a(S'Super Heroes Must Eat Oats.'
p433
g13
(dp434
Vprobability
p435
(dp436
Vneg
p437
F0.472140580452192
sVneutral
p438
F0.4816549799702458
sVpos
p439
F0.527859419547808
ssVlabel
p440
Vpos
p441
stp442
a(S'Super man helps every one.'
p443
g13
(dp444
Vprobability
p445
(dp446
Vneg
p447
F0.32394688225312396
sVneutral
p448
F0.5026665993298205
sVpos
p449
F0.676053117746876
ssVlabel
p450
Vneutral
p451
stp452
a(S'Jesus Christ Made Seattle Under Pressure.'
p453
g2
(dp454
Vprobability
p455
(dp456
Vneg
p457
F0.441320400399393
sVneutral
p458
F0.7953577068152996
sVpos
p459
F0.558679599600607
ssVlabel
p460
Vneutral
p461
stp462
a(S'Never Eat Shredded Wheat.'
p463
g2
(dp464
Vprobability
p465
(dp466
Vneg
p467
F0.5395009151949972
sVneutral
p468
F0.5810467270472804
sVpos
p469
F0.46049908480500285
ssVlabel
p470
Vneutral
p471
stp472
a(S'Naughty Elephants Squirt Water.'
p473
g13
(dp474
Vprobability
p475
(dp476
Vneg
p477
F0.4985498370359642
sVneutral
p478
F0.2892599705847303
sVpos
p479
F0.5014501629640358
ssVlabel
p480
Vpos
p481
stp482
a(S'Never Eat Slimy Worms.'
p483
g2
(dp484
Vprobability
p485
(dp486
Vneg
p487
F0.503744362464563
sVneutral
p488
F0.644438454136845
sVpos
p489
F0.49625563753543706
ssVlabel
p490
Vneutral
p491
stp492
a(S'No Soup For Russia.'
p493
g2
(dp494
Vprobability
p495
(dp496
Vneg
p497
F0.5444026791018853
sVneutral
p498
F0.5534297836331278
sVpos
p499
F0.45559732089811467
ssVlabel
p500
Vneutral
p501
stp502
a(S'Incredibly Slimy Cockroach Bit My Aunt.'
p503
g2
(dp504
Vprobability
p505
(dp506
Vneg
p507
F0.5505308664786805
sVneutral
p508
F0.4324643780003554
sVpos
p509
F0.4494691335213194
ssVlabel
p510
Vneg
p511
stp512
a(S'Can Queen Victoria Eat Cold Apple Pie?'
p513
g13
(dp514
Vprobability
p515
(dp516
Vneg
p517
F0.6779883913545051
sVneutral
p518
F0.41229735454306055
sVpos
p519
F0.32201160864549494
ssVlabel
p520
Vneg
p521
stp522
a(S'Pregnant Camels Ordinarily Sit Down Carefully, Perhaps Their Joints Creak.'
p523
g13
(dp524
Vprobability
p525
(dp526
Vneg
p527
F0.5703429686348613
sVneutral
p528
F0.6676314022152189
sVpos
p529
F0.42965703136513866
ssVlabel
p530
Vneutral
p531
stp532
a(S'Toronto Girls Can Flirt And Only Quit To Chase Dwarves.'
p533
g2
(dp534
Vprobability
p535
(dp536
Vneg
p537
F0.5499218965568258
sVneutral
p538
F0.5508512566535068
sVpos
p539
F0.4500781034431742
ssVlabel
p540
Vneutral
p541
stp542
a(S'Terrible Giants Can Find Alligators Or Quaint Trolls Conveniently Digestible.'
p543
g13
(dp544
Vprobability
p545
(dp546
Vneg
p547
F0.8686616166050294
sVneutral
p548
F0.4382570604992037
sVpos
p549
F0.1313383833949706
ssVlabel
p550
Vneg
p551
stp552
a(S'Tall Girls Can Fight And Other Queer Things Can Do!'
p553
g2
(dp554
Vprobability
p555
(dp556
Vneg
p557
F0.5795188639657516
sVneutral
p558
F0.7886247612310018
sVpos
p559
F0.4204811360342484
ssVlabel
p560
Vneutral
p561
stp562
a(S"The 'mites go up and the 'tites come down."
p563
g13
(dp564
Vprobability
p565
(dp566
Vneg
p567
F0.6517856899450158
sVneutral
p568
F0.7345408288223219
sVpos
p569
F0.34821431005498416
ssVlabel
p570
Vneutral
p571
stp572
a(S'Tights hang from the Ceiling.'
p573
g13
(dp574
Vprobability
p575
(dp576
Vneg
p577
F0.49502701285092987
sVneutral
p578
F0.797021511220051
sVpos
p579
F0.5049729871490701
ssVlabel
p580
Vneutral
p581
stp582
a(S'Will a jolly man make a jolly visitor.'
p583
g2
(dp584
Vprobability
p585
(dp586
Vneg
p587
F0.40006256185662503
sVneutral
p588
F0.7025673357336734
sVpos
p589
F0.599937438143375
ssVlabel
p590
Vneutral
p591
stp592
a(S'No plan like yours to study history wisely.'
p593
g2
(dp594
Vprobability
p595
(dp596
Vneg
p597
F0.4649099269001892
sVneutral
p598
F0.3942617703252287
sVpos
p599
F0.5350900730998108
ssVlabel
p600
Vpos
p601
stp602
a(S'Lovely Cadbury Dairy Milk.'
p603
g13
(dp604
Vprobability
p605
(dp606
Vneg
p607
F0.3744802186664945
sVneutral
p608
F0.19588751933384194
sVpos
p609
F0.6255197813335055
ssVlabel
p610
Vpos
p611
stp612
a(S"Lazy Cats Don't Move."
p613
g13
(dp614
Vprobability
p615
(dp616
Vneg
p617
F0.7323739795334974
sVneutral
p618
F0.06678456940987397
sVpos
p619
F0.26762602046650263
ssVlabel
p620
Vneg
p621
stp622
a(S'Mrs. Baker.'
p623
g13
(dp624
Vprobability
p625
(dp626
Vneg
p627
F0.5094428510282971
sVneutral
p628
F0.8250200483729171
sVpos
p629
F0.4905571489717028
ssVlabel
p630
Vneutral
p631
stp632
a(S'My Legs.'
p633
g13
(dp634
Vprobability
p635
(dp636
Vneg
p637
F0.5563875233734786
sVneutral
p638
F0.4129203112387682
sVpos
p639
F0.44361247662652137
ssVlabel
p640
Vneg
p641
stp642
a(S'Large Elephants Jump Slowly and Sink Rapidly.'
p643
g13
(dp644
Vprobability
p645
(dp646
Vneg
p647
F0.5782498151309753
sVneutral
p648
F0.4668479840403262
sVpos
p649
F0.4217501848690247
ssVlabel
p650
Vneg
p651
stp652
a(S'Please excuse my dear Aunt Sally.'
p653
g13
(dp654
Vprobability
p655
(dp656
Vneg
p657
F0.5751370706487445
sVneutral
p658
F0.4807996921182755
sVpos
p659
F0.42486292935125547
ssVlabel
p660
Vneg
p661
stp662
a(S'Oranges Have Segments, Apples Have Cores, and Oats.'
p663
g2
(dp664
Vprobability
p665
(dp666
Vneg
p667
F0.4764865388257249
sVneutral
p668
F0.6109500496653361
sVpos
p669
F0.5235134611742751
ssVlabel
p670
Vneutral
p671
stp672
a(S'Apples Have Cores, Oranges Have Segments, Oranges Are Tangy.'
p673
g13
(dp674
Vprobability
p675
(dp676
Vneg
p677
F0.44938135643165633
sVneutral
p678
F0.5258584691371375
sVpos
p679
F0.5506186435683437
ssVlabel
p680
Vneutral
p681
stp682
a(S'Apples Have Cores, Oranges Have Segments, Also Tangy.'
p683
g2
(dp684
Vprobability
p685
(dp686
Vneg
p687
F0.41761372296403665
sVneutral
p688
F0.5450654681531176
sVpos
p689
F0.5823862770359634
ssVlabel
p690
Vneutral
p691
stp692
a(S"Some Old Horse Came A-Hoppin' Through Our Alley."
p693
g13
(dp694
Vprobability
p695
(dp696
Vneg
p697
F0.5786331556820866
sVneutral
p698
F0.8009871888023525
sVpos
p699
F0.4213668443179134
ssVlabel
p700
Vneutral
p701
stp702
a(S"Silly Old Henry Can't Add Hundreds, Tens Or Anything."
p703
g13
(dp704
Vprobability
p705
(dp706
Vneg
p707
F0.6882187425139533
sVneutral
p708
F0.27378179320227286
sVpos
p709
F0.3117812574860467
ssVlabel
p710
Vneg
p711
stp712
a(S"Simple Old 'Herman Carries A Huge Tub Of Apples."
p713
g2
(dp714
Vprobability
p715
(dp716
Vneg
p717
F0.25537518387921787
sVneutral
p718
F0.49049110273041685
sVpos
p719
F0.7446248161207821
ssVlabel
p720
Vpos
p721
stp722
a(S'Silly Old Harry Caught A Herring Trawling Off America.'
p723
g2
(dp724
Vprobability
p725
(dp726
Vneg
p727
F0.6364796408176484
sVneutral
p728
F0.589283846023441
sVpos
p729
F0.3635203591823516
ssVlabel
p730
Vneutral
p731
stp732
a(S'Silly Old Hag Caught All Her Teeth On Apples.'
p733
g2
(dp734
Vprobability
p735
(dp736
Vneg
p737
F0.600328836787654
sVneutral
p738
F0.7828765046708305
sVpos
p739
F0.39967116321234597
ssVlabel
p740
Vneutral
p741
stp742
a(S"Some Old Hags Can't Always Hide Their Old Age."
p743
g13
(dp744
Vprobability
p745
(dp746
Vneg
p747
F0.5397762742278993
sVneutral
p748
F0.7630493365020884
sVpos
p749
F0.4602237257721007
ssVlabel
p750
Vneutral
p751
stp752
a(S'Some Old Hippie Caught Another Hippie Tripping Out on Acid.'
p753
g13
(dp754
Vprobability
p755
(dp756
Vneg
p757
F0.47940623643597435
sVneutral
p758
F0.7453954454849656
sVpos
p759
F0.5205937635640256
ssVlabel
p760
Vneutral
p761
stp762
a(S'Could A Hungry Stupid Ostrich Have Taken Over America.'
p763
g2
(dp764
Vprobability
p765
(dp766
Vneg
p767
F0.8900443086001558
sVneutral
p768
F0.08168985359459073
sVpos
p769
F0.10995569139984418
ssVlabel
p770
Vneg
p771
stp772
a(S'Some People Have Curly Brown Hair Turned Permanently Black.'
p773
g2
(dp774
Vprobability
p775
(dp776
Vneg
p777
F0.6227506446019574
sVneutral
p778
F0.46123001574938266
sVpos
p779
F0.3772493553980426
ssVlabel
p780
Vneg
p781
stp782
a(S"Sex On Hard Concrete Always Hurts The Other's Ass."
p783
g13
(dp784
Vprobability
p785
(dp786
Vneg
p787
F0.639427390256964
sVneutral
p788
F0.6871821011635589
sVpos
p789
F0.3605726097430359
ssVlabel
p790
Vneutral
p791
stp792
a(S'Some Old Hippy Caught Another Hippy Tripping On Acid.'
p793
g2
(dp794
Vprobability
p795
(dp796
Vneg
p797
F0.5187980492405234
sVneutral
p798
F0.7497420067023449
sVpos
p799
F0.4812019507594766
ssVlabel
p800
Vneutral
p801
stp802
a(S"Some Lovers Try Positions That They Can't Handle."
p803
g13
(dp804
Vprobability
p805
(dp806
Vneg
p807
F0.7581464260155117
sVneutral
p808
F0.7931093106145912
sVpos
p809
F0.2418535739844882
ssVlabel
p810
Vneutral
p811
stp812
a(S'She Looks Too Pretty Try To Catch Her.'
p813
g13
(dp814
Vprobability
p815
(dp816
Vneg
p817
F0.6014157845333945
sVneutral
p818
F0.6146675116760257
sVpos
p819
F0.3985842154666055
ssVlabel
p820
Vneutral
p821
stp822
a(S'So Long To Pinky, Here Comes The Thumb.'
p823
g2
(dp824
Vprobability
p825
(dp826
Vneg
p827
F0.7234306863821964
sVneutral
p828
F0.22595383111516598
sVpos
p829
F0.27656931361780357
ssVlabel
p830
Vneg
p831
stp832
a(S'Simplly Learn The Positions That The Carpus Has.'
p833
g2
(dp834
Vprobability
p835
(dp836
Vneg
p837
F0.41491751140522604
sVneutral
p838
F0.8079970906534119
sVpos
p839
F0.585082488594774
ssVlabel
p840
Vneutral
p841
stp842
a(S'Send Louis To Paris To Tame Carnal Hungers.'
p843
g13
(dp844
Vprobability
p845
(dp846
Vneg
p847
F0.624253222328869
sVneutral
p848
F0.8247986045586219
sVpos
p849
F0.37574677767113096
ssVlabel
p850
Vneutral
p851
stp852
a(S'Some Say Marry Money, But My Mother Says Big Business Makes Money.'
p853
g2
(dp854
Vprobability
p855
(dp856
Vneg
p857
F0.6467200184872295
sVneutral
p858
F0.7479335254800149
sVpos
p859
F0.3532799815127705
ssVlabel
p860
Vneutral
p861
stp862
a(S"On Old Olympus' Towering Top A Finn And German Viewed Some Hops."
p863
g2
(dp864
Vprobability
p865
(dp866
Vneg
p867
F0.31940641065838193
sVneutral
p868
F0.8353929684185805
sVpos
p869
F0.6805935893416181
ssVlabel
p870
Vneutral
p871
stp872
a(S'Eddy Ate Dynamite Good Bye Eddy.'
p873
g13
(dp874
Vprobability
p875
(dp876
Vneg
p877
F0.46580491505363486
sVneutral
p878
F0.22992882276096127
sVpos
p879
F0.5341950849463651
ssVlabel
p880
Vpos
p881
stp882
a(S'Every Adult Dog Growls Barks Eats.'
p883
g13
(dp884
Vprobability
p885
(dp886
Vneg
p887
F0.6054785576066753
sVneutral
p888
F0.3797674844586814
sVpos
p889
F0.39452144239332465
ssVlabel
p890
Vneg
p891
stp892
a(S"Easter Angels Don't Give Broken Eggs."
p893
g13
(dp894
Vprobability
p895
(dp896
Vneg
p897
F0.7309312963772199
sVneutral
p898
F0.4085784842496887
sVpos
p899
F0.2690687036227802
ssVlabel
p900
Vneg
p901
stp902
a(S'Every Average Dude Gets Better Eventually.'
p903
g13
(dp904
Vprobability
p905
(dp906
Vneg
p907
F0.5184474427213316
sVneutral
p908
F0.2852901527776817
sVpos
p909
F0.4815525572786684
ssVlabel
p910
Vneg
p911
stp912
a(S'Every Acid Dealer Gets Busted Eventually.'
p913
g2
(dp914
Vprobability
p915
(dp916
Vneg
p917
F0.700671417653951
sVneutral
p918
F0.7828649888004064
sVpos
p919
F0.29932858234604903
ssVlabel
p920
Vneutral
p921
stp922
a(S'Even After Dinner Giant Boys Eat.'
p923
g2
(dp924
Vprobability
p925
(dp926
Vneg
p927
F0.49942869747888785
sVneutral
p928
F0.4285076404690984
sVpos
p929
F0.5005713025211121
ssVlabel
p930
Vpos
p931
stp932
a(S'Elephants And Donkeys Grow Big E.'
p933
g2
(dp934
Vprobability
p935
(dp936
Vneg
p937
F0.40061350873993784
sVneutral
p938
F0.6336278283279748
sVpos
p939
F0.5993864912600622
ssVlabel
p940
Vneutral
p941
stp942
a(S'Elephants Are Dark Grey Bun Eaters.'
p943
g2
(dp944
Vprobability
p945
(dp946
Vneg
p947
F0.600340728087867
sVneutral
p948
F0.7378015613162008
sVpos
p949
F0.399659271912133
ssVlabel
p950
Vneutral
p951
stp952
a(S"Elvis' Big Great Dane Ate Everything."
p953
g2
(dp954
Vprobability
p955
(dp956
Vneg
p957
F0.35799366544046707
sVneutral
p958
F0.4106842735258322
sVpos
p959
F0.6420063345595329
ssVlabel
p960
Vpos
p961
stp962
a(S'Every Big Girl Deserves An Elephant.'
p963
g13
(dp964
Vprobability
p965
(dp966
Vneg
p967
F0.36905143301639753
sVneutral
p968
F0.40359067308325686
sVpos
p969
F0.6309485669836025
ssVlabel
p970
Vpos
p971
stp972
a(S'Every Beginning Guitarist Does All Exercises!'
p973
g2
(dp974
Vprobability
p975
(dp976
Vneg
p977
F0.5539801855786934
sVneutral
p978
F0.3882530949444247
sVpos
p979
F0.4460198144213066
ssVlabel
p980
Vneg
p981
stp982
a(S'Easter Bunny Gets Drunk At Easter.'
p983
g13
(dp984
Vprobability
p985
(dp986
Vneg
p987
F0.6338157178503359
sVneutral
p988
F0.4277166802457928
sVpos
p989
F0.36618428214966414
ssVlabel
p990
Vneg
p991
stp992
a(S'Every Good Boy Does Fine.'
p993
g2
(dp994
Vprobability
p995
(dp996
Vneg
p997
F0.33192016688014137
sVneutral
p998
F0.17059343697910723
sVpos
p999
F0.6680798331198586
ssVlabel
p1000
Vpos
p1001
stp1002
a(S'Every Good Boy Deserves Fudge.'
p1003
g13
(dp1004
Vprobability
p1005
(dp1006
Vneg
p1007
F0.3351245743410267
sVneutral
p1008
F0.1937401813225376
sVpos
p1009
F0.6648754256589733
ssVlabel
p1010
Vpos
p1011
stp1012
a(S'Every Good Boy Deserves Footie.'
p1013
g2
(dp1014
Vprobability
p1015
(dp1016
Vneg
p1017
F0.3280022967804572
sVneutral
p1018
F0.1937401813225376
sVpos
p1019
F0.6719977032195428
ssVlabel
p1020
Vpos
p1021
stp1022
a(S'Every Good Boy Deserves Friendship.'
p1023
g13
(dp1024
Vprobability
p1025
(dp1026
Vneg
p1027
F0.23631069697498908
sVneutral
p1028
F0.21568356954222342
sVpos
p1029
F0.7636893030250109
ssVlabel
p1030
Vpos
p1031
stp1032
a(S'Every Good Boy Deserves Food.'
p1033
g2
(dp1034
Vprobability
p1035
(dp1036
Vneg
p1037
F0.3141380089758432
sVneutral
p1038
F0.22535109920270135
sVpos
p1039
F0.6858619910241568
ssVlabel
p1040
Vpos
p1041
stp1042
a(S'Every Good Boy Deserves Fruit.'
p1043
g2
(dp1044
Vprobability
p1045
(dp1046
Vneg
p1047
F0.34663596372194916
sVneutral
p1048
F0.30653034305089644
sVpos
p1049
F0.6533640362780508
ssVlabel
p1050
Vpos
p1051
stp1052
a(S'Every Good Boy Deserves Fun.'
p1053
g13
(dp1054
Vprobability
p1055
(dp1056
Vneg
p1057
F0.2646790755843731
sVneutral
p1058
F0.2147381057136155
sVpos
p1059
F0.7353209244156269
ssVlabel
p1060
Vpos
p1061
stp1062
a(S'Every Green Bogey Deserves Flicking.'
p1063
g2
(dp1064
Vprobability
p1065
(dp1066
Vneg
p1067
F0.5767946545834991
sVneutral
p1068
F0.2977622834323461
sVpos
p1069
F0.4232053454165009
ssVlabel
p1070
Vneg
p1071
stp1072
a(S'Empty Garbage Before Dad Flips.'
p1073
g13
(dp1074
Vprobability
p1075
(dp1076
Vneg
p1077
F0.7216214810782946
sVneutral
p1078
F0.47165695841855343
sVpos
p1079
F0.27837851892170545
ssVlabel
p1080
Vneg
p1081
stp1082
a(S'Every Green Bus Drives Fast.'
p1083
g2
(dp1084
Vprobability
p1085
(dp1086
Vneg
p1087
F0.5695058153774999
sVneutral
p1088
F0.5828038848059122
sVpos
p1089
F0.4304941846225001
ssVlabel
p1090
Vneutral
p1091
stp1092
a(S'Ernie Gave Bert Dead Fish.'
p1093
g2
(dp1094
Vprobability
p1095
(dp1096
Vneg
p1097
F0.6836887412299115
sVneutral
p1098
F0.6261953484913955
sVpos
p1099
F0.3163112587700885
ssVlabel
p1100
Vneutral
p1101
stp1102
a(S'Fat Albert Can Eat.'
p1103
g13
(dp1104
Vprobability
p1105
(dp1106
Vneg
p1107
F0.49067005783036743
sVneutral
p1108
F0.7315406105051648
sVpos
p1109
F0.5093299421696326
ssVlabel
p1110
Vneutral
p1111
stp1112
a(S'Good Boys Do Fine Always.'
p1113
g2
(dp1114
Vprobability
p1115
(dp1116
Vneg
p1117
F0.23505642107884106
sVneutral
p1118
F0.20341578413191938
sVpos
p1119
F0.7649435789211589
ssVlabel
p1120
Vpos
p1121
stp1122
a(S"Grizzly Bears Don't Fly Airplanes."
p1123
g2
(dp1124
Vprobability
p1125
(dp1126
Vneg
p1127
F0.5928924408236698
sVneutral
p1128
F0.07929693832310057
sVpos
p1129
F0.40710755917633024
ssVlabel
p1130
Vneg
p1131
stp1132
a(S'Great Basses Dig Fine Altos.'
p1133
g2
(dp1134
Vprobability
p1135
(dp1136
Vneg
p1137
F0.25466996320230995
sVneutral
p1138
F0.17557092889252915
sVpos
p1139
F0.74533003679769
ssVlabel
p1140
Vpos
p1141
stp1142
a(S'Green Birds Dive For Anchovies.'
p1143
g2
(dp1144
Vprobability
p1145
(dp1146
Vneg
p1147
F0.5193086612130652
sVneutral
p1148
F0.3956312317801476
sVpos
p1149
F0.4806913387869348
ssVlabel
p1150
Vneg
p1151
stp1152
a(S'Great Big Ducks Fly Away.'
p1153
g2
(dp1154
Vprobability
p1155
(dp1156
Vneg
p1157
F0.37043561628089794
sVneutral
p1158
F0.252181736978448
sVpos
p1159
F0.6295643837191021
ssVlabel
p1160
Vpos
p1161
stp1162
a(S'George Bush Drives Fancy Automobiles.'
p1163
g13
(dp1164
Vprobability
p1165
(dp1166
Vneg
p1167
F0.43683443288674995
sVneutral
p1168
F0.5988133967117589
sVpos
p1169
F0.56316556711325
ssVlabel
p1170
Vneutral
p1171
stp1172
a(S'All Cows Eat Grass.'
p1173
g13
(dp1174
Vprobability
p1175
(dp1176
Vneg
p1177
F0.5069230390561967
sVneutral
p1178
F0.45770655722288156
sVpos
p1179
F0.49307696094380327
ssVlabel
p1180
Vneg
p1181
stp1182
a(S'All Cars Eat Gas.'
p1183
g13
(dp1184
Vprobability
p1185
(dp1186
Vneg
p1187
F0.5089272841172987
sVneutral
p1188
F0.8067368940225444
sVpos
p1189
F0.4910727158827013
ssVlabel
p1190
Vneutral
p1191
stp1192
a(S'Richard of York gave battle in vain.'
p1193
g2
(dp1194
Vprobability
p1195
(dp1196
Vneg
p1197
F0.6162026972473498
sVneutral
p1198
F0.7993934863228903
sVpos
p1199
F0.38379730275265017
ssVlabel
p1200
Vneutral
p1201
stp1202
a(S'King Xerxes Can Seduce Lovely princesses.'
p1203
g13
(dp1204
Vprobability
p1205
(dp1206
Vneg
p1207
F0.3357578951959289
sVneutral
p1208
F0.44864957313985104
sVpos
p1209
F0.6642421048040711
ssVlabel
p1210
Vpos
p1211
stp1212
a(S'Spectacles, testicles, wallet, and watch.'
p1213
g2
(dp1214
Vprobability
p1215
(dp1216
Vneg
p1217
F0.448145223802615
sVneutral
p1218
F0.412951572351586
sVpos
p1219
F0.551854776197385
ssVlabel
p1220
Vpos
p1221
stp1222
a(S'I before E, except after C.'
p1223
g13
(dp1224
Vprobability
p1225
(dp1226
Vneg
p1227
F0.6612469596733723
sVneutral
p1228
F0.5563389147982661
sVpos
p1229
F0.3387530403266277
ssVlabel
p1230
Vneutral
p1231
stp1232
a(S'Weird is just weird.'
p1233
g13
(dp1234
Vprobability
p1235
(dp1236
Vneg
p1237
F0.650137610589568
sVneutral
p1238
F0.08375229867548213
sVpos
p1239
F0.3498623894104321
ssVlabel
p1240
Vneg
p1241
stp1242
a(S'When two vowels go walking the first does the talking.'
p1243
g13
(dp1244
Vprobability
p1245
(dp1246
Vneg
p1247
F0.47259517699893516
sVneutral
p1248
F0.6719395312842978
sVpos
p1249
F0.5274048230010648
ssVlabel
p1250
Vneutral
p1251
stp1252
a(S'We hear with our ear.'
p1253
g13
(dp1254
Vprobability
p1255
(dp1256
Vneg
p1257
F0.400776743994282
sVneutral
p1258
F0.5926633396225595
sVpos
p1259
F0.599223256005718
ssVlabel
p1260
Vneutral
p1261
stp1262
a(S'complement adds something to make it enough.'
p1263
g2
(dp1264
Vprobability
p1265
(dp1266
Vneg
p1267
F0.5654558205492255
sVneutral
p1268
F0.17191840475003475
sVpos
p1269
F0.43454417945077445
ssVlabel
p1270
Vneg
p1271
stp1272
a(S'compliment puts you in the limelight.'
p1273
g2
(dp1274
Vprobability
p1275
(dp1276
Vneg
p1277
F0.2815869478760322
sVneutral
p1278
F0.4151304378483067
sVpos
p1279
F0.7184130521239678
ssVlabel
p1280
Vpos
p1281
stp1282
a(S'Your principal is your pal.'
p1283
g13
(dp1284
Vprobability
p1285
(dp1286
Vneg
p1287
F0.3895213483552349
sVneutral
p1288
F0.5012874723422598
sVpos
p1289
F0.6104786516447651
ssVlabel
p1290
Vneutral
p1291
stp1292
a(S'A rule can be called a principle.'
p1293
g2
(dp1294
Vprobability
p1295
(dp1296
Vneg
p1297
F0.5989255765580705
sVneutral
p1298
F0.6728905627511025
sVpos
p1299
F0.4010744234419294
ssVlabel
p1300
Vneutral
p1301
stp1302
a(S'A sculpture is a kind of picture.'
p1303
g2
(dp1304
Vprobability
p1305
(dp1306
Vneg
p1307
F0.25087925308997416
sVneutral
p1308
F0.06614933349850406
sVpos
p1309
F0.7491207469100258
ssVlabel
p1310
Vpos
p1311
stp1312
a(S'Dining In A Rough Restaurant: Hurry, Otherwise Expect Accidents!'
p1313
g13
(dp1314
Vprobability
p1315
(dp1316
Vneg
p1317
F0.38277979822197916
sVneutral
p1318
F0.6693467370915597
sVpos
p1319
F0.6172202017780208
ssVlabel
p1320
Vneutral
p1321
stp1322
a(S'A Rat In The House May Eat The Ice Cream.'
p1323
g2
(dp1324
Vprobability
p1325
(dp1326
Vneg
p1327
F0.5148656550638242
sVneutral
p1328
F0.867844318094777
sVpos
p1329
F0.4851343449361758
ssVlabel
p1330
Vneutral
p1331
stp1332
a(S'A Red Indian Thought He Might Eat Tulips In Class.'
p1333
g2
(dp1334
Vprobability
p1335
(dp1336
Vneg
p1337
F0.42807762935348226
sVneutral
p1338
F0.8131958094248599
sVpos
p1339
F0.5719223706465177
ssVlabel
p1340
Vneutral
p1341
stp1342
a(S'Not Every Cat Eats Sardines (Some Are Really Yummy)'
p1343
g13
(dp1344
Vprobability
p1345
(dp1346
Vneg
p1347
F0.6169146587625656
sVneutral
p1348
F0.041025519895624966
sVpos
p1349
F0.3830853412374345
ssVlabel
p1350
Vneg
p1351
stp1352
a(S'Never Eat Crisps, Eat Salad Sandwiches, And Remain Young!'
p1353
g2
(dp1354
Vprobability
p1355
(dp1356
Vneg
p1357
F0.4375578257177065
sVneutral
p1358
F0.6356543365290358
sVpos
p1359
F0.5624421742822935
ssVlabel
p1360
Vneutral
p1361
stp1362
a(S'Big Elephants Can Always Understand Small Elephants.'
p1363
g13
(dp1364
Vprobability
p1365
(dp1366
Vneg
p1367
F0.3639707078322987
sVneutral
p1368
F0.44564972902624667
sVpos
p1369
F0.6360292921677013
ssVlabel
p1370
Vpos
p1371
stp1372
a(S'Big Elephants Cause Accidents Under Small Elephants.'
p1373
g2
(dp1374
Vprobability
p1375
(dp1376
Vneg
p1377
F0.44831968349837226
sVneutral
p1378
F0.6043104324467468
sVpos
p1379
F0.5516803165016277
ssVlabel
p1380
Vneutral
p1381
stp1382
a(S"Big Elephants Can't Always Use Small Exits."
p1383
g13
(dp1384
Vprobability
p1385
(dp1386
Vneg
p1387
F0.458895018621307
sVneutral
p1388
F0.37598529077788934
sVpos
p1389
F0.541104981378693
ssVlabel
p1390
Vpos
p1391
stp1392
a(S"Big Elephants Can't Always Use Small Entrances."
p1393
g2
(dp1394
Vprobability
p1395
(dp1396
Vneg
p1397
F0.4742454631693678
sVneutral
p1398
F0.37598529077788906
sVpos
p1399
F0.5257545368306322
ssVlabel
p1400
Vpos
p1401
stp1402
a(S"there's always some red port (wine) left."
p1403
g2
(dp1404
Vprobability
p1405
(dp1406
Vneg
p1407
F0.5418729094004193
sVneutral
p1408
F0.434270891051177
sVpos
p1409
F0.4581270905995806
ssVlabel
p1410
Vneg
p1411
stp1412
a(S'King Henry Died By Drinking Chocolate Milk.'
p1413
g13
(dp1414
Vprobability
p1415
(dp1416
Vneg
p1417
F0.5413697186399948
sVneutral
p1418
F0.8628262211330299
sVpos
p1419
F0.4586302813600052
ssVlabel
p1420
Vneutral
p1421
stp1422
a(S"King Henry Doesn't Bother Dusting Clean Money."
p1423
g2
(dp1424
Vprobability
p1425
(dp1426
Vneg
p1427
F0.6840630216587642
sVneutral
p1428
F0.2689361307425894
sVpos
p1429
F0.3159369783412358
ssVlabel
p1430
Vneg
p1431
stp1432
a(S'Kangaroos Hop Down British Driveways Carrying Money.'
p1433
g13
(dp1434
Vprobability
p1435
(dp1436
Vneg
p1437
F0.5304968599006985
sVneutral
p1438
F0.8375853411368439
sVpos
p1439
F0.4695031400993015
ssVlabel
p1440
Vneutral
p1441
stp1442
a.