(lp0
(S'Abolish the wages system.'
p1
S'N'
p2
(dp3
Vprobability
p4
(dp5
Vneg
p6
F0.49617081112902217
sVneutral
p7
F0.7870386090699263
sVpos
p8
F0.5038291888709778
ssVlabel
p9
Vneutral
p10
stp11
a(S'A dollar a day, roast beef, and the Chinese must go.'
p12
g2
(dp13
Vprobability
p14
(dp15
Vneg
p16
F0.2894745880700913
sVneutral
p17
F0.9723132711150858
sVpos
p18
F0.7105254119299087
ssVlabel
p19
Vneutral
p20
stp21
a(S'All power to the Soviets.'
p22
g2
(dp23
Vprobability
p24
(dp25
Vneg
p26
F0.4297507926046934
sVneutral
p27
F0.8566113019285367
sVpos
p28
F0.5702492073953066
ssVlabel
p29
Vneutral
p30
stp31
a(S'All Power to the Imagination!'
p32
S'M'
p33
(dp34
Vprobability
p35
(dp36
Vneg
p37
F0.34769182122948294
sVneutral
p38
F0.7188967314565367
sVpos
p39
F0.652308178770517
ssVlabel
p40
Vneutral
p41
stp42
a(S"Are you thinking what we're thinking?"
p43
g33
(dp44
Vprobability
p45
(dp46
Vneg
p47
F0.48227124796916543
sVneutral
p48
F0.36550281135027346
sVpos
p49
F0.5177287520308346
ssVlabel
p50
Vpos
p51
stp52
a(S'A weak economy, underfunded schools and an NHS that costs more and delivers less.'
p53
g2
(dp54
Vprobability
p55
(dp56
Vneg
p57
F0.41015843573061983
sVneutral
p58
F0.22568581317675976
sVpos
p59
F0.5898415642693802
ssVlabel
p60
Vpos
p61
stp62
a(S'Britain Deserves Better.'
p63
g33
(dp64
Vprobability
p65
(dp66
Vneg
p67
F0.41947346846634903
sVneutral
p68
F0.31546326001175123
sVpos
p69
F0.580526531533651
ssVlabel
p70
Vpos
p71
stp72
a(S'To be disabled is beautiful.'
p73
g33
(dp74
Vprobability
p75
(dp76
Vneg
p77
F0.26003235635258204
sVneutral
p78
F0.4234296759535552
sVpos
p79
F0.739967643647418
ssVlabel
p80
Vpos
p81
stp82
a(S'Better dead than Red.'
p83
g33
(dp84
Vprobability
p85
(dp86
Vneg
p87
F0.5970775399774813
sVneutral
p88
F0.38542313239481274
sVpos
p89
F0.4029224600225187
ssVlabel
p90
Vneg
p91
stp92
a(S'Better war than Pact, better dead than slave.'
p93
g33
(dp94
Vprobability
p95
(dp96
Vneg
p97
F0.5152468923316891
sVneutral
p98
F0.5484283725912422
sVpos
p99
F0.4847531076683109
ssVlabel
p100
Vneutral
p101
stp102
a(S'Bigger cages! Longer chains!'
p103
g33
(dp104
Vprobability
p105
(dp106
Vneg
p107
F0.5328695041069015
sVneutral
p108
F0.332147538210875
sVpos
p109
F0.4671304958930985
ssVlabel
p110
Vneg
p111
stp112
a(S'Black is beautiful. '
p113
g33
(dp114
Vprobability
p115
(dp116
Vneg
p117
F0.2807699180789859
sVneutral
p118
F0.4297151737390557
sVpos
p119
F0.7192300819210141
ssVlabel
p120
Vpos
p121
stp122
a(S'Black Power.'
p123
g2
(dp124
Vprobability
p125
(dp126
Vneg
p127
F0.5578328163314745
sVneutral
p128
F0.5463888637072368
sVpos
p129
F0.44216718366852553
ssVlabel
p130
Vneutral
p131
stp132
a(S'Bread and roses.'
p133
g2
(dp134
Vprobability
p135
(dp136
Vneg
p137
F0.43558614169163257
sVneutral
p138
F0.6235969273792343
sVpos
p139
F0.5644138583083674
ssVlabel
p140
Vneutral
p141
stp142
a(S'Catch up and overtake America!  N.'
p143
g2
(dp144
Vprobability
p145
(dp146
Vneg
p147
F0.5142621274068228
sVneutral
p148
F0.8387658653142184
sVpos
p149
F0.48573787259317724
ssVlabel
p150
Vneutral
p151
stp152
a(S'Come and take it.'
p153
g33
(dp154
Vprobability
p155
(dp156
Vneg
p157
F0.37274107801789136
sVneutral
p158
F0.6965936859031947
sVpos
p159
F0.6272589219821086
ssVlabel
p160
Vneutral
p161
stp162
a(S'Deeds Not Words.'
p163
g33
(dp164
Vprobability
p165
(dp166
Vneg
p167
F0.48460140846814836
sVneutral
p168
F0.5578583519706409
sVpos
p169
F0.5153985915318516
ssVlabel
p170
Vneutral
p171
stp172
a(S'Doctors need to be preserved, not reserved.'
p173
g33
(dp174
Vprobability
p175
(dp176
Vneg
p177
F0.6703526327227736
sVneutral
p178
F0.5583794624043306
sVpos
p179
F0.32964736727722643
ssVlabel
p180
Vneutral
p181
stp182
a(S"Don't let him take Britain back to the 1980s."
p183
g33
(dp184
Vprobability
p185
(dp186
Vneg
p187
F0.6381193931138351
sVneutral
p188
F0.853972452047115
sVpos
p189
F0.3618806068861649
ssVlabel
p190
Vneutral
p191
stp192
a(S"Don't Stop, Keep Going On!"
p193
g33
(dp194
Vprobability
p195
(dp196
Vneg
p197
F0.6575217046481063
sVneutral
p198
F0.573406603096657
sVpos
p199
F0.3424782953518936
ssVlabel
p200
Vneutral
p201
stp202
a(S'Each for all and all for each.'
p203
g33
(dp204
Vprobability
p205
(dp206
Vneg
p207
F0.3167997209445137
sVneutral
p208
F0.7454756161501653
sVpos
p209
F0.6832002790554863
ssVlabel
p210
Vneutral
p211
stp212
a(S'Eat the Rich.'
p213
g2
(dp214
Vprobability
p215
(dp216
Vneg
p217
F0.4061620764803825
sVneutral
p218
F0.37786666431291743
sVpos
p219
F0.5938379235196175
ssVlabel
p220
Vpos
p221
stp222
a(S'One people, one empire, one leader.'
p223
g33
(dp224
Vprobability
p225
(dp226
Vneg
p227
F0.4264563303586735
sVneutral
p228
F0.7498081627657784
sVpos
p229
F0.5735436696413265
ssVlabel
p230
Vneutral
p231
stp232
a(S'England Will Fight to the Last American.'
p233
g33
(dp234
Vprobability
p235
(dp236
Vneg
p237
F0.3874263099186551
sVneutral
p238
F0.9025936782073872
sVpos
p239
F0.6125736900813449
ssVlabel
p240
Vneutral
p241
stp242
a(S'Every Man a King.'
p243
g33
(dp244
Vprobability
p245
(dp246
Vneg
p247
F0.4560538009820918
sVneutral
p248
F0.7521788027289201
sVpos
p249
F0.5439461990179082
ssVlabel
p250
Vneutral
p251
stp252
a(S'Everything Within the State, Nothing Outside the State.'
p253
g2
(dp254
Vprobability
p255
(dp256
Vneg
p257
F0.44170381456561003
sVneutral
p258
F0.9123606748015791
sVpos
p259
F0.55829618543439
ssVlabel
p260
Vneutral
p261
stp262
a(S'Fifty-Four Forty or Fight.'
p263
g2
(dp264
Vprobability
p265
(dp266
Vneg
p267
F0.5150520783310549
sVneutral
p268
F0.8043767528396298
sVpos
p269
F0.48494792166894507
ssVlabel
p270
Vneutral
p271
stp272
a(S"Fuhrer command, we'll follow you!"
p273
g2
(dp274
Vprobability
p275
(dp276
Vneg
p277
F0.27818177130894006
sVneutral
p278
F0.35605370016261845
sVpos
p279
F0.7218182286910599
ssVlabel
p280
Vpos
p281
stp282
a(S'God made Adam and Eve, not Adam and Steve.'
p283
g33
(dp284
Vprobability
p285
(dp286
Vneg
p287
F0.7535530223974174
sVneutral
p288
F0.9439544215274225
sVpos
p289
F0.24644697760258258
ssVlabel
p290
Vneutral
p291
stp292
a(S'Got Guv.'
p293
g2
(dp294
Vprobability
p295
(dp296
Vneg
p297
F0.543920078830628
sVneutral
p298
F0.7173075706096982
sVpos
p299
F0.45607992116937207
ssVlabel
p300
Vneutral
p301
stp302
a(S'Go For Growth.'
p303
g33
(dp304
Vprobability
p305
(dp306
Vneg
p307
F0.455515227761348
sVneutral
p308
F0.7300444588890386
sVpos
p309
F0.544484772238652
ssVlabel
p310
Vneutral
p311
stp312
a(S'Had enough?'
p313
g33
(dp314
Vprobability
p315
(dp316
Vneg
p317
F0.5962342733587134
sVneutral
p318
F0.26913088853293976
sVpos
p319
F0.4037657266412867
ssVlabel
p320
Vneg
p321
stp322
a(S'Until the Eternal Victory.'
p323
g33
(dp324
Vprobability
p325
(dp326
Vneg
p327
F0.5604690663305719
sVneutral
p328
F0.8578048036761389
sVpos
p329
F0.4395309336694281
ssVlabel
p330
Vneutral
p331
stp332
a(S'He killed my ma, he killed my pa, but I will vote for him.'
p333
g33
(dp334
Vprobability
p335
(dp336
Vneg
p337
F0.5923633516606344
sVneutral
p338
F0.6253862375522035
sVpos
p339
F0.40763664833936564
ssVlabel
p340
Vneutral
p341
stp342
a(S'Back home into the Reich.'
p343
g2
(dp344
Vprobability
p345
(dp346
Vneg
p347
F0.5058554667955817
sVneutral
p348
F0.8672599450714372
sVpos
p349
F0.4941445332044183
ssVlabel
p350
Vneutral
p351
stp352
a(S"He's Good Enough for Me."
p353
g33
(dp354
Vprobability
p355
(dp356
Vneg
p357
F0.49565150119032275
sVneutral
p358
F0.16021233306357244
sVpos
p359
F0.5043484988096772
ssVlabel
p360
Vpos
p361
stp362
a(S'Hey, Hey, LBJ, how many kids you kill today?'
p363
g2
(dp364
Vprobability
p365
(dp366
Vneg
p367
F0.4485043130835257
sVneutral
p368
F0.33343367079201597
sVpos
p369
F0.5514956869164743
ssVlabel
p370
Vpos
p371
stp372
a(S'I agree with Nick.'
p373
g2
(dp374
Vprobability
p375
(dp376
Vneg
p377
F0.501973279363396
sVneutral
p378
F0.6896532803160115
sVpos
p379
F0.4980267206366041
ssVlabel
p380
Vneutral
p381
stp382
a(S'If you want a nigger for a neighbour, vote Liberal or Labour.'
p383
g33
(dp384
Vprobability
p385
(dp386
Vneg
p387
F0.5337799869946863
sVneutral
p388
F0.3725101550261177
sVpos
p389
F0.4662200130053137
ssVlabel
p390
Vneg
p391
stp392
a(S"In Your Heart You Know He's Right'"
p393
g33
(dp394
Vprobability
p395
(dp396
Vneg
p397
F0.22081769412633
sVneutral
p398
F0.4601562964010153
sVpos
p399
F0.77918230587367
ssVlabel
p400
Vpos
p401
stp402
a(S"It's Scotland's oil."
p403
g2
(dp404
Vprobability
p405
(dp406
Vneg
p407
F0.5125890294168252
sVneutral
p408
F0.37702967720250286
sVpos
p409
F0.4874109705831748
ssVlabel
p410
Vneg
p411
stp412
a(S"It's Time."
p413
g33
(dp414
Vprobability
p415
(dp416
Vneg
p417
F0.4976329387923042
sVneutral
p418
F0.43712134639071637
sVpos
p419
F0.5023670612076958
ssVlabel
p420
Vpos
p421
stp422
a(S'Jai Jawan Jai Kisan.'
p423
g33
(dp424
Vprobability
p425
(dp426
Vneg
p427
F0.5568625941079074
sVneutral
p428
F0.5950890614040548
sVpos
p429
F0.4431374058920926
ssVlabel
p430
Vneutral
p431
stp432
a(S"Labour Isn't Working."
p433
g2
(dp434
Vprobability
p435
(dp436
Vneg
p437
F0.7353064044943437
sVneutral
p438
F0.40805621736951697
sVpos
p439
F0.2646935955056563
ssVlabel
p440
Vneg
p441
stp442
a(S'Liberty, Equality, Fraternity.'
p443
g33
(dp444
Vprobability
p445
(dp446
Vneg
p447
F0.4993263776930691
sVneutral
p448
F0.5950890614040548
sVpos
p449
F0.5006736223069309
ssVlabel
p450
Vneutral
p451
stp452
a(S'Lips That Touch Liquor Must Never Touch Mine.'
p453
g33
(dp454
Vprobability
p455
(dp456
Vneg
p457
F0.47539467751215114
sVneutral
p458
F0.8284606943315415
sVpos
p459
F0.5246053224878489
ssVlabel
p460
Vneutral
p461
stp462
a(S'Maggie, Maggie, Maggie.'
p463
g33
(dp464
Vprobability
p465
(dp466
Vneg
p467
F0.4623317491436859
sVneutral
p468
F0.6764785818959895
sVpos
p469
F0.5376682508563141
ssVlabel
p470
Vneutral
p471
stp472
a(S'Make love not war.'
p473
g33
(dp474
Vprobability
p475
(dp476
Vneg
p477
F0.35609371516976895
sVneutral
p478
F0.5175331883087427
sVpos
p479
F0.643906284830231
ssVlabel
p480
Vneutral
p481
stp482
a(S'Moving New Hampshire Forward.'
p483
g2
(dp484
Vprobability
p485
(dp486
Vneg
p487
F0.3145110813701797
sVneutral
p488
F0.5536773889969959
sVpos
p489
F0.6854889186298203
ssVlabel
p490
Vneutral
p491
stp492
a(S'Never had it so good.'
p493
g33
(dp494
Vprobability
p495
(dp496
Vneg
p497
F0.40613949663742255
sVneutral
p498
F0.1550857226148037
sVpos
p499
F0.5938605033625775
ssVlabel
p500
Vpos
p501
stp502
a(S'Never been had so good.'
p503
g2
(dp504
Vprobability
p505
(dp506
Vneg
p507
F0.4285410549057933
sVneutral
p508
F0.17112964294537472
sVpos
p509
F0.5714589450942067
ssVlabel
p510
Vpos
p511
stp512
a(S'New Labour, New Danger.'
p513
g33
(dp514
Vprobability
p515
(dp516
Vneg
p517
F0.5268325376209526
sVneutral
p518
F0.5946714206692856
sVpos
p519
F0.47316746237904733
ssVlabel
p520
Vneutral
p521
stp522
a(S'No God, No Master.'
p523
g33
(dp524
Vprobability
p525
(dp526
Vneg
p527
F0.560145672882669
sVneutral
p528
F0.7454512752964154
sVpos
p529
F0.43985432711733097
ssVlabel
p530
Vneutral
p531
stp532
a(S'No Surrender!'
p533
g2
(dp534
Vprobability
p535
(dp536
Vneg
p537
F0.6446050508550738
sVneutral
p538
F0.4699258453841633
sVpos
p539
F0.35539494914492614
ssVlabel
p540
Vneg
p541
stp542
a(S'Not a step back!'
p543
g2
(dp544
Vprobability
p545
(dp546
Vneg
p547
F0.5783617764736331
sVneutral
p548
F0.4071252783426442
sVpos
p549
F0.4216382235263669
ssVlabel
p550
Vneg
p551
stp552
a(S'Nothing About Us Without Us!'
p553
g2
(dp554
Vprobability
p555
(dp556
Vneg
p557
F0.6047818560375712
sVneutral
p558
F0.34888755642817765
sVpos
p559
F0.3952181439624288
ssVlabel
p560
Vneg
p561
stp562
a(S'Now... The Next Steps.'
p563
g2
(dp564
Vprobability
p565
(dp566
Vneg
p567
F0.5171332435748981
sVneutral
p568
F0.9343197691748709
sVpos
p569
F0.48286675642510185
ssVlabel
p570
Vneutral
p571
stp572
a(S'No War but Class War.'
p573
g2
(dp574
Vprobability
p575
(dp576
Vneg
p577
F0.5663620582661832
sVneutral
p578
F0.5722094594954102
sVpos
p579
F0.43363794173381676
ssVlabel
p580
Vneutral
p581
stp582
a(S'Homeland or Death.'
p583
g2
(dp584
Vprobability
p585
(dp586
Vneg
p587
F0.5248231373541435
sVneutral
p588
F0.7866754448630843
sVpos
p589
F0.47517686264585646
ssVlabel
p590
Vneutral
p591
stp592
a(S'Piss On Pity.'
p593
g33
(dp594
Vprobability
p595
(dp596
Vneg
p597
F0.588600449236205
sVneutral
p598
F0.45837178443381865
sVpos
p599
F0.411399550763795
ssVlabel
p600
Vneg
p601
stp602
a(S'Power to the people.'
p603
g33
(dp604
Vprobability
p605
(dp606
Vneg
p607
F0.39494524126456065
sVneutral
p608
F0.8170275059301287
sVpos
p609
F0.6050547587354393
ssVlabel
p610
Vneutral
p611
stp612
a(S'Promises Kept.'
p613
g33
(dp614
Vprobability
p615
(dp616
Vneg
p617
F0.5632870430365123
sVneutral
p618
F0.6978261135196139
sVpos
p619
F0.43671295696348766
ssVlabel
p620
Vneutral
p621
stp622
a(S"Rally Around O'Malley."
p623
g33
(dp624
Vprobability
p625
(dp626
Vneg
p627
F0.5547165392920058
sVneutral
p628
F0.5477090025235085
sVpos
p629
F0.4452834607079942
ssVlabel
p630
Vneutral
p631
stp632
a(S'Remember Pearl Harbor!'
p633
g33
(dp634
Vprobability
p635
(dp636
Vneg
p637
F0.5478758711767695
sVneutral
p638
F0.5330033322779335
sVpos
p639
F0.45212412882323055
ssVlabel
p640
Vneutral
p641
stp642
a(S'Remember the Alamo!'
p643
g2
(dp644
Vprobability
p645
(dp646
Vneg
p647
F0.4852793048191195
sVneutral
p648
F0.439196056828335
sVpos
p649
F0.5147206951808805
ssVlabel
p650
Vpos
p651
stp652
a(S'Remember the Maine!'
p653
g2
(dp654
Vprobability
p655
(dp656
Vneg
p657
F0.4661400402333499
sVneutral
p658
F0.6733837292128749
sVpos
p659
F0.5338599597666501
ssVlabel
p660
Vneutral
p661
stp662
a(S'Revolution is not a dinner party.'
p663
g2
(dp664
Vprobability
p665
(dp666
Vneg
p667
F0.6433309133236906
sVneutral
p668
F0.6321478524165939
sVpos
p669
F0.3566690866763094
ssVlabel
p670
Vneutral
p671
stp672
a(S'Safety First.'
p673
g33
(dp674
Vprobability
p675
(dp676
Vneg
p677
F0.3976401864365955
sVneutral
p678
F0.6477866772991646
sVpos
p679
F0.6023598135634045
ssVlabel
p680
Vneutral
p681
stp682
a(S'Save the Bay.'
p683
g2
(dp684
Vprobability
p685
(dp686
Vneg
p687
F0.7094979256717332
sVneutral
p688
F0.9019526202466134
sVpos
p689
F0.2905020743282668
ssVlabel
p690
Vneutral
p691
stp692
a(S'Serve the People.'
p693
g33
(dp694
Vprobability
p695
(dp696
Vneg
p697
F0.47281368716848415
sVneutral
p698
F0.5032305416705855
sVpos
p699
F0.5271863128315158
ssVlabel
p700
Vneutral
p701
stp702
a(S'Simon Go Back.'
p703
g33
(dp704
Vprobability
p705
(dp706
Vneg
p707
F0.6166425684198208
sVneutral
p708
F0.8397008963018329
sVpos
p709
F0.3833574315801792
ssVlabel
p710
Vneutral
p711
stp712
a(S'Stanley Baldwin the Man You Can Trust!'
p713
g2
(dp714
Vprobability
p715
(dp716
Vneg
p717
F0.34800096849011286
sVneutral
p718
F0.6613431213573633
sVpos
p719
F0.6519990315098871
ssVlabel
p720
Vneutral
p721
stp722
a(S'Stay the course.'
p723
g2
(dp724
Vprobability
p725
(dp726
Vneg
p727
F0.5357139791953669
sVneutral
p728
F0.8732868139023008
sVpos
p729
F0.46428602080463316
ssVlabel
p730
Vneutral
p731
stp732
a(S'Stop the boats.'
p733
g2
(dp734
Vprobability
p735
(dp736
Vneg
p737
F0.544594776538995
sVneutral
p738
F0.8845608963264618
sVpos
p739
F0.455405223461005
ssVlabel
p740
Vneutral
p741
stp742
a(S'The Buck Stops Here.'
p743
g33
(dp744
Vprobability
p745
(dp746
Vneg
p747
F0.6064314721522719
sVneutral
p748
F0.41838427716919685
sVpos
p749
F0.3935685278477281
ssVlabel
p750
Vneg
p751
stp752
a(S'The rich get richer and the poor get poorer.'
p753
g33
(dp754
Vprobability
p755
(dp756
Vneg
p757
F0.6092865233978958
sVneutral
p758
F0.331126347321327
sVpos
p759
F0.3907134766021042
ssVlabel
p760
Vneg
p761
stp762
a(S"There Ain't No Such Thing as a Free Lunch."
p763
g33
(dp764
Vprobability
p765
(dp766
Vneg
p767
F0.6466109615043741
sVneutral
p768
F0.17181204143457904
sVpos
p769
F0.35338903849562586
ssVlabel
p770
Vneg
p771
stp772
a(S'They shall not pass.'
p773
g2
(dp774
Vprobability
p775
(dp776
Vneg
p777
F0.5667709377932614
sVneutral
p778
F0.7155834368665991
sVpos
p779
F0.4332290622067386
ssVlabel
p780
Vneutral
p781
stp782
a(S'Three Word Chant!'
p783
g33
(dp784
Vprobability
p785
(dp786
Vneg
p787
F0.5276456530454298
sVneutral
p788
F0.7614967919520125
sVpos
p789
F0.47235434695457024
ssVlabel
p790
Vneutral
p791
stp792
a(S'Think global, act local.'
p793
g33
(dp794
Vprobability
p795
(dp796
Vneg
p797
F0.43380703238989815
sVneutral
p798
F0.796491013751349
sVpos
p799
F0.5661929676101018
ssVlabel
p800
Vneutral
p801
stp802
a(S'Trust Baldwin he will steer you to safety!'
p803
g2
(dp804
Vprobability
p805
(dp806
Vneg
p807
F0.38944778909888944
sVneutral
p808
F0.8470521290454189
sVpos
p809
F0.6105522109011106
ssVlabel
p810
Vneutral
p811
stp812
a(S'Tyler and Texas!'
p813
g2
(dp814
Vprobability
p815
(dp816
Vneg
p817
F0.5216841682496844
sVneutral
p818
F0.8262182293849127
sVpos
p819
F0.4783158317503156
ssVlabel
p820
Vneutral
p821
stp822
a(S'We will overcome, We shall Triumph.'
p823
g33
(dp824
Vprobability
p825
(dp826
Vneg
p827
F0.3582916635491309
sVneutral
p828
F0.4663140736726017
sVpos
p829
F0.6417083364508691
ssVlabel
p830
Vpos
p831
stp832
a(S'Vote for Change.'
p833
g33
(dp834
Vprobability
p835
(dp836
Vneg
p837
F0.4459824875423185
sVneutral
p838
F0.6680388988391109
sVpos
p839
F0.5540175124576815
ssVlabel
p840
Vneutral
p841
stp842
a(S'We are the 99%'
p843
g33
(dp844
Vprobability
p845
(dp846
Vneg
p847
F0.5052484465191873
sVneutral
p848
F0.5562830542408034
sVpos
p849
F0.4947515534808126
ssVlabel
p850
Vneutral
p851
stp852
a(S'We are the people.'
p853
g33
(dp854
Vprobability
p855
(dp856
Vneg
p857
F0.3840982772654663
sVneutral
p858
F0.5730026279227424
sVpos
p859
F0.6159017227345337
ssVlabel
p860
Vneutral
p861
stp862
a(S'Workers of the world, unite!'
p863
g2
(dp864
Vprobability
p865
(dp866
Vneg
p867
F0.2833520804879479
sVneutral
p868
F0.8754151874629424
sVpos
p869
F0.7166479195120521
ssVlabel
p870
Vneutral
p871
stp872
a(S'Tippecanoe and Tyler, Too.'
p873
g2
(dp874
Vprobability
p875
(dp876
Vneg
p877
F0.5814148335464911
sVneutral
p878
F0.468634527776989
sVpos
p879
F0.41858516645350885
ssVlabel
p880
Vneg
p881
stp882
a(S"We Polked you in '44, We shall Pierce you in '52."
p883
g33
(dp884
Vprobability
p885
(dp886
Vneg
p887
F0.33238289995620884
sVneutral
p888
F0.38088130556692223
sVpos
p889
F0.6676171000437912
ssVlabel
p890
Vpos
p891
stp892
a(S"Don't swap horses in midstream."
p893
g33
(dp894
Vprobability
p895
(dp896
Vneg
p897
F0.6166591290061137
sVneutral
p898
F0.3983841922534704
sVpos
p899
F0.38334087099388625
ssVlabel
p900
Vneg
p901
stp902
a(S"This is a White Man's Government!"
p903
g33
(dp904
Vprobability
p905
(dp906
Vneg
p907
F0.45075839151933206
sVneutral
p908
F0.8222637294060835
sVpos
p909
F0.5492416084806679
ssVlabel
p910
Vneutral
p911
stp912
a(S'Vote as You Shot.'
p913
g2
(dp914
Vprobability
p915
(dp916
Vneg
p917
F0.4547749388714192
sVneutral
p918
F0.4032881789786149
sVpos
p919
F0.5452250611285808
ssVlabel
p920
Vpos
p921
stp922
a(S'Grant beat Davis.'
p923
g2
(dp924
Vprobability
p925
(dp926
Vneg
p927
F0.5100030081168678
sVneutral
p928
F0.40774378795930294
sVpos
p929
F0.4899969918831322
ssVlabel
p930
Vneg
p931
stp932
a(S'Grant us another term.'
p933
g2
(dp934
Vprobability
p935
(dp936
Vneg
p937
F0.5474146244952657
sVneutral
p938
F0.46716476456226436
sVpos
p939
F0.4525853755047343
ssVlabel
p940
Vneg
p941
stp942
a(S'Tilden or Blood!'
p943
g2
(dp944
Vprobability
p945
(dp946
Vneg
p947
F0.5277893321473979
sVneutral
p948
F0.5244913010208486
sVpos
p949
F0.4722106678526021
ssVlabel
p950
Vneutral
p951
stp952
a(S"Ma, Ma where's my Pa?"
p953
g33
(dp954
Vprobability
p955
(dp956
Vneg
p957
F0.674724752073907
sVneutral
p958
F0.3777084493773856
sVpos
p959
F0.325275247926093
ssVlabel
p960
Vneg
p961
stp962
a(S'Rum, Romanism, and Rebellion.'
p963
g33
(dp964
Vprobability
p965
(dp966
Vneg
p967
F0.44163555514019315
sVneutral
p968
F0.5479458871366478
sVpos
p969
F0.5583644448598069
ssVlabel
p970
Vneutral
p971
stp972
a(S"Grandfather's hat fits Ben."
p973
g2
(dp974
Vprobability
p975
(dp976
Vneg
p977
F0.5152326106747029
sVneutral
p978
F0.6438699702483196
sVpos
p979
F0.484767389325297
ssVlabel
p980
Vneutral
p981
stp982
a(S'Four more years of the full dinner pail.'
p983
g2
(dp984
Vprobability
p985
(dp986
Vneg
p987
F0.3221250289607396
sVneutral
p988
F0.699459947902194
sVpos
p989
F0.6778749710392604
ssVlabel
p990
Vneutral
p991
stp992
a(S'Full Dinner Pail.'
p993
g2
(dp994
Vprobability
p995
(dp996
Vneg
p997
F0.47907421918850923
sVneutral
p998
F0.5347202615371767
sVpos
p999
F0.5209257808114908
ssVlabel
p1000
Vneutral
p1001
stp1002
a(S'Let Well Enough Alone.'
p1003
g2
(dp1004
Vprobability
p1005
(dp1006
Vneg
p1007
F0.5787280851533421
sVneutral
p1008
F0.20343394893816003
sVpos
p1009
F0.421271914846658
ssVlabel
p1010
Vneg
p1011
stp1012
a(S'He kept us out of war.'
p1013
g2
(dp1014
Vprobability
p1015
(dp1016
Vneg
p1017
F0.5422015848282009
sVneutral
p1018
F0.7696475435630239
sVpos
p1019
F0.45779841517179914
ssVlabel
p1020
Vneutral
p1021
stp1022
a(S'Keep Cool and Keep Coolidge.'
p1023
g33
(dp1024
Vprobability
p1025
(dp1026
Vneg
p1027
F0.27971557881052944
sVneutral
p1028
F0.33677049642380025
sVpos
p1029
F0.7202844211894706
ssVlabel
p1030
Vpos
p1031
stp1032
a(S'Hoo but Hoover?'
p1033
g33
(dp1034
Vprobability
p1035
(dp1036
Vneg
p1037
F0.5445711452126247
sVneutral
p1038
F0.554521045340016
sVpos
p1039
F0.45542885478737527
ssVlabel
p1040
Vneutral
p1041
stp1042
a(S"Hoover we trusted, now we're busted."
p1043
g33
(dp1044
Vprobability
p1045
(dp1046
Vneg
p1047
F0.6191795473995727
sVneutral
p1048
F0.7374885358001881
sVpos
p1049
F0.38082045260042735
ssVlabel
p1050
Vneutral
p1051
stp1052
a(S'I propose a New Deal.'
p1053
g2
(dp1054
Vprobability
p1055
(dp1056
Vneg
p1057
F0.5399150841587204
sVneutral
p1058
F0.44789465304752146
sVpos
p1059
F0.46008491584127964
ssVlabel
p1060
Vneg
p1061
stp1062
a(S'We are turning the corner.'
p1063
g2
(dp1064
Vprobability
p1065
(dp1066
Vneg
p1067
F0.5438216145111389
sVneutral
p1068
F0.7751599311125714
sVpos
p1069
F0.45617838548886114
ssVlabel
p1070
Vneutral
p1071
stp1072
a(S'Defeat the New Deal and Its Reckless Spending.'
p1073
g2
(dp1074
Vprobability
p1075
(dp1076
Vneg
p1077
F0.4070056965526545
sVneutral
p1078
F0.6566608208692899
sVpos
p1079
F0.5929943034473455
ssVlabel
p1080
Vneutral
p1081
stp1082
a(S"Let's Get Another Deck."
p1083
g33
(dp1084
Vprobability
p1085
(dp1086
Vneg
p1087
F0.5543930694403892
sVneutral
p1088
F0.5468763716969005
sVpos
p1089
F0.44560693055961076
ssVlabel
p1090
Vneutral
p1091
stp1092
a(S"Let's Make It a Landon-Slide."
p1093
g2
(dp1094
Vprobability
p1095
(dp1096
Vneg
p1097
F0.5286155410656611
sVneutral
p1098
F0.3625911824303016
sVpos
p1099
F0.4713844589343389
ssVlabel
p1100
Vneg
p1101
stp1102
a(S'Life, Liberty, and Landon.'
p1103
g2
(dp1104
Vprobability
p1105
(dp1106
Vneg
p1107
F0.4343639515280252
sVneutral
p1108
F0.8379346290987336
sVpos
p1109
F0.5656360484719748
ssVlabel
p1110
Vneutral
p1111
stp1112
a(S'Remember Hoover!'
p1113
g2
(dp1114
Vprobability
p1115
(dp1116
Vneg
p1117
F0.5095519989067516
sVneutral
p1118
F0.4952603398268896
sVpos
p1119
F0.4904480010932484
ssVlabel
p1120
Vneg
p1121
stp1122
a(S'Sunflowers die in November.'
p1123
g33
(dp1124
Vprobability
p1125
(dp1126
Vneg
p1127
F0.5149580596535233
sVneutral
p1128
F0.7919037736351933
sVpos
p1129
F0.4850419403464767
ssVlabel
p1130
Vneutral
p1131
stp1132
a(S'No Fourth Term Either.'
p1133
g2
(dp1134
Vprobability
p1135
(dp1136
Vneg
p1137
F0.6753201100636259
sVneutral
p1138
F0.6184643600718891
sVpos
p1139
F0.32467988993637403
ssVlabel
p1140
Vneutral
p1141
stp1142
a(S'Roosevelt for Ex-President.'
p1143
g33
(dp1144
Vprobability
p1145
(dp1146
Vneg
p1147
F0.4298889309648418
sVneutral
p1148
F0.8159333121098626
sVpos
p1149
F0.5701110690351582
ssVlabel
p1150
Vneutral
p1151
stp1152
a(S"There's No Indispensable Man."
p1153
g33
(dp1154
Vprobability
p1155
(dp1156
Vneg
p1157
F0.5915549245299221
sVneutral
p1158
F0.06859842332320307
sVpos
p1159
F0.40844507547007786
ssVlabel
p1160
Vneg
p1161
stp1162
a(S"Washington Wouldn't, Grant Couldn't, Roosevelt Shouldn't."
p1163
g33
(dp1164
Vprobability
p1165
(dp1166
Vneg
p1167
F0.6575615214876838
sVneutral
p1168
F0.31437192621055227
sVpos
p1169
F0.3424384785123162
ssVlabel
p1170
Vneg
p1171
stp1172
a(S'We Want Willkie.'
p1173
g2
(dp1174
Vprobability
p1175
(dp1176
Vneg
p1177
F0.5350800730619697
sVneutral
p1178
F0.5058201020620352
sVpos
p1179
F0.4649199269380303
ssVlabel
p1180
Vneutral
p1181
stp1182
a(S"Give 'Em Hell, Harry!"
p1183
g2
(dp1184
Vprobability
p1185
(dp1186
Vneg
p1187
F0.5299250596967406
sVneutral
p1188
F0.5698475742164065
sVpos
p1189
F0.4700749403032594
ssVlabel
p1190
Vneutral
p1191
stp1192
a(S"I'm just wild about Harry."
p1193
g2
(dp1194
Vprobability
p1195
(dp1196
Vneg
p1197
F0.6411104457929787
sVneutral
p1198
F0.22728593813360817
sVpos
p1199
F0.3588895542070213
ssVlabel
p1200
Vneg
p1201
stp1202
a(S"Pour it on 'em, Harry!"
p1203
g2
(dp1204
Vprobability
p1205
(dp1206
Vneg
p1207
F0.6169437147804405
sVneutral
p1208
F0.4745840716753142
sVpos
p1209
F0.3830562852195595
ssVlabel
p1210
Vneg
p1211
stp1212
a(S'I like Ike.'
p1213
g2
(dp1214
Vprobability
p1215
(dp1216
Vneg
p1217
F0.47908176529724544
sVneutral
p1218
F0.34448362444310626
sVpos
p1219
F0.5209182347027546
ssVlabel
p1220
Vpos
p1221
stp1222
a(S'I still like Ike.'
p1223
g2
(dp1224
Vprobability
p1225
(dp1226
Vneg
p1227
F0.5143518923908612
sVneutral
p1228
F0.34009171102101643
sVpos
p1229
F0.48564810760913885
ssVlabel
p1230
Vneg
p1231
stp1232
a(S'Peace and Prosperity.'
p1233
g33
(dp1234
Vprobability
p1235
(dp1236
Vneg
p1237
F0.36034059700058185
sVneutral
p1238
F0.6748823662836397
sVpos
p1239
F0.6396594029994181
ssVlabel
p1240
Vneutral
p1241
stp1242
a(S"In Your Heart, You Know He's Right."
p1243
g33
(dp1244
Vprobability
p1245
(dp1246
Vneg
p1247
F0.1851034084120443
sVneutral
p1248
F0.2815848678295867
sVpos
p1249
F0.8148965915879557
ssVlabel
p1250
Vpos
p1251
stp1252
a(S"In Your Guts, You Know He's Nuts."
p1253
g33
(dp1254
Vprobability
p1255
(dp1256
Vneg
p1257
F0.37069029242538987
sVneutral
p1258
F0.4595953943372484
sVpos
p1259
F0.6293097075746101
ssVlabel
p1260
Vpos
p1261
stp1262
a(S'Go clean for Gene.'
p1263
g33
(dp1264
Vprobability
p1265
(dp1266
Vneg
p1267
F0.5163490794409575
sVneutral
p1268
F0.5562933284804888
sVpos
p1269
F0.4836509205590425
ssVlabel
p1270
Vneutral
p1271
stp1272
a(S"Don't Switch Dicks in the Middle of a Screw, Vote Nixon in '72."
p1273
g2
(dp1274
Vprobability
p1275
(dp1276
Vneg
p1277
F0.6836295494512642
sVneutral
p1278
F0.6752660330872274
sVpos
p1279
F0.3163704505487358
ssVlabel
p1280
Vneutral
p1281
stp1282
a(S'Bozo and the Pineapple.'
p1283
g2
(dp1284
Vprobability
p1285
(dp1286
Vneg
p1287
F0.4734491743786068
sVneutral
p1288
F0.6902123356060526
sVpos
p1289
F0.5265508256213932
ssVlabel
p1290
Vneutral
p1291
stp1292
a(S"Let's make America great again."
p1293
g33
(dp1294
Vprobability
p1295
(dp1296
Vneg
p1297
F0.3596908268970024
sVneutral
p1298
F0.1585729205441105
sVpos
p1299
F0.6403091731029976
ssVlabel
p1300
Vpos
p1301
stp1302
a(S'Morning Again in America.'
p1303
g2
(dp1304
Vprobability
p1305
(dp1306
Vneg
p1307
F0.37867772525127374
sVneutral
p1308
F0.8210628416709808
sVpos
p1309
F0.6213222747487263
ssVlabel
p1310
Vneutral
p1311
stp1312
a(S'Read my lips.'
p1313
g2
(dp1314
Vprobability
p1315
(dp1316
Vneg
p1317
F0.4328625613992816
sVneutral
p1318
F0.3733229787464965
sVpos
p1319
F0.5671374386007184
ssVlabel
p1320
Vpos
p1321
stp1322
a(S"It's Time to Change America."
p1323
g33
(dp1324
Vprobability
p1325
(dp1326
Vneg
p1327
F0.4734182518004757
sVneutral
p1328
F0.6411568159921749
sVpos
p1329
F0.5265817481995243
ssVlabel
p1330
Vneutral
p1331
stp1332
a(S"It's The Economy, Stupid."
p1333
g2
(dp1334
Vprobability
p1335
(dp1336
Vneg
p1337
F0.7954880008181793
sVneutral
p1338
F0.019538895740251527
sVpos
p1339
F0.20451199918182078
ssVlabel
p1340
Vneg
p1341
stp1342
a(S'Ross for Boss.'
p1343
g33
(dp1344
Vprobability
p1345
(dp1346
Vneg
p1347
F0.5628284337899647
sVneutral
p1348
F0.7794670061091433
sVpos
p1349
F0.4371715662100353
ssVlabel
p1350
Vneutral
p1351
stp1352
a(S'Yes, America Can!'
p1353
g33
(dp1354
Vprobability
p1355
(dp1356
Vneg
p1357
F0.4261663739604711
sVneutral
p1358
F0.5131022526074928
sVpos
p1359
F0.5738336260395289
ssVlabel
p1360
Vneutral
p1361
stp1362
a(S'Yes We Can.'
p1363
g33
(dp1364
Vprobability
p1365
(dp1366
Vneg
p1367
F0.47542808482950194
sVneutral
p1368
F0.38493261478630436
sVpos
p1369
F0.5245719151704981
ssVlabel
p1370
Vpos
p1371
stp1372
a(S'Change We Can Believe In.'
p1373
g33
(dp1374
Vprobability
p1375
(dp1376
Vneg
p1377
F0.39224389957617145
sVneutral
p1378
F0.43725125980884944
sVpos
p1379
F0.6077561004238285
ssVlabel
p1380
Vpos
p1381
stp1382
a(S'Country First.'
p1383
g33
(dp1384
Vprobability
p1385
(dp1386
Vneg
p1387
F0.4185615588731376
sVneutral
p1388
F0.6405457902883737
sVpos
p1389
F0.5814384411268624
ssVlabel
p1390
Vneutral
p1391
stp1392
a(S'The Strength and Experience to Bring Real Change.'
p1393
g33
(dp1394
Vprobability
p1395
(dp1396
Vneg
p1397
F0.23105713096235192
sVneutral
p1398
F0.706384310513125
sVpos
p1399
F0.7689428690376481
ssVlabel
p1400
Vneutral
p1401
stp1402
a(S'Forward.'
p1403
g2
(dp1404
Vprobability
p1405
(dp1406
Vneg
p1407
F0.48684370217263007
sVneutral
p1408
F0.5688896384509868
sVpos
p1409
F0.5131562978273699
ssVlabel
p1410
Vneutral
p1411
stp1412
a(S'Believe in America.'
p1413
g33
(dp1414
Vprobability
p1415
(dp1416
Vneg
p1417
F0.38365147655670717
sVneutral
p1418
F0.6973106952239266
sVpos
p1419
F0.6163485234432928
ssVlabel
p1420
Vneutral
p1421
stp1422
a(S'A Green New Deal For America.'
p1423
g2
(dp1424
Vprobability
p1425
(dp1426
Vneg
p1427
F0.42268484698316633
sVneutral
p1428
F0.6854881504424885
sVpos
p1429
F0.5773151530168337
ssVlabel
p1430
Vneutral
p1431
stp1432
a.