c__builtin__
set
p0
((lp1
S'knockers'
p2
aS'dicklicker'
p3
aS'narcotic'
p4
aVprotest
p5
aS'jihad'
p6
aS'asian'
p7
aS'bazooms'
p8
aS'spik'
p9
aS'porno'
p10
aS'penile'
p11
aVpornk
p12
aS'xtc'
p13
aVtuckaho
p14
aS'suckme'
p15
aS"women's"
p16
aS'shitdick'
p17
aS'smack'
p18
aVarous
p19
aS'crotchmonkey'
p20
aVdisturb
p21
aS'cockknob'
p22
aS'suckmytit'
p23
aS'nigerians'
p24
aS'nigger'
p25
aVfaec
p26
aS'crotch'
p27
aS'mothafuck'
p28
aS'hore'
p29
aS'sooty'
p30
aS'nigg'
p31
aS'hork'
p32
aS'pubic'
p33
aS'japanese'
p34
aS'horn'
p35
aS'dickbrain'
p36
aVfece
p37
aVsooti
p38
aVcocklov
p39
aS'nigr'
p40
aS'peepshpw'
p41
aS'christ'
p42
aS'kum'
p43
aS'jackoff'
p44
aS'fetish'
p45
aS'orgies'
p46
aS'mufflikcer'
p47
aS'spunky'
p48
aVyanke
p49
aS'getiton'
p50
aVspunki
p51
aVherp
p52
aS'chink'
p53
aS'freakyfucker'
p54
aS'fuk'
p55
aVtimbernigg
p56
aS'goddamnit'
p57
aS'jizjuice'
p58
aS'shithappens'
p59
aS'cocksmith'
p60
aS'beastality'
p61
aS'gaysex'
p62
aVcohe
p63
aS'mattressprincess'
p64
aS'hitlerism'
p65
aS'cocaine'
p66
aS'footstar'
p67
aS'bra'
p68
aS'criminals'
p69
aS'palestinian'
p70
aS'asses'
p71
aS'fuckwhore'
p72
aS'hiscock'
p73
aS'fistfucker'
p74
aS'pudd'
p75
aS'playboy'
p76
aS'slimebucket'
p77
aS'phukked'
p78
aVpussyfuck
p79
aS'assranger'
p80
aS'adult'
p81
aS'fistfucked'
p82
aS'goddammit'
p83
aS'hole'
p84
aS'boobies'
p85
aS'tnt'
p86
aS'crimes'
p87
aS'kraut'
p88
aS'trots'
p89
aS'cockrider'
p90
aS'ero'
p91
aS'asslick'
p92
aS'kissass'
p93
aS'wank'
p94
aS'cocksucked'
p95
aVdefec
p96
aS'pooper'
p97
aVwhorefuck
p98
aS'analannie'
p99
aS'cocksucker'
p100
aS'looser'
p101
aVhoe
p102
aVbootycal
p103
aVfoursom
p104
aVjiggi
p105
aS'moron'
p106
aS'jiggy'
p107
aS'eatme'
p108
aVchines
p109
aS'lesbian'
p110
aVnarcot
p111
aS'footlicker'
p112
aVpearlnecklac
p113
aVcuntey
p114
aS'executed'
p115
aVdiddl
p116
aS'feltching'
p117
aS'wanking'
p118
aVfailur
p119
aS'suckdick'
p120
aS'buttfucker'
p121
aS'bombing'
p122
aS'tinkle'
p123
aS'nofuckingway'
p124
aS'diseases'
p125
aS'byatch'
p126
aS'sadom'
p127
aS'trisexual'
p128
aS'sextoy'
p129
aVbang
p130
aS'penetration'
p131
aS'sextoys'
p132
aS'splittail'
p133
aS'weenie'
p134
aS'jizzim'
p135
aVdamnat
p136
aS'defecate'
p137
aS'cornhole'
p138
aS'fuckedup'
p139
aS'bong'
p140
aS'cumm'
p141
aS'allah'
p142
aS'stripclub'
p143
aS'nigerian'
p144
aS'whiz'
p145
aS'whit'
p146
aS'puddboy'
p147
aVfuckfac
p148
aS'pussies'
p149
aVhomicid
p150
aS'god'
p151
aS'gob'
p152
aS'laid'
p153
aS'goy'
p154
aS'hooker'
p155
aS'stringer'
p156
aS'whorefucker'
p157
aVurin
p158
aS'alligatorbait'
p159
aS'lesbo'
p160
aS'upthebutt'
p161
aS'skumbag'
p162
aS'dammit'
p163
aS'licker'
p164
aS'horseshit'
p165
aS'refugee'
p166
aS'wuzzie'
p167
aVangi
p168
aS'uptheass'
p169
aS'disturbed'
p170
aVassbagg
p171
aVclamdigg
p172
aVspermheard
p173
aS'fuckin'
p174
aS'hook'
p175
aS'bi-sexual'
p176
aVflatul
p177
aS'niger'
p178
aS'cumshot'
p179
aS'whorehouse'
p180
aS'kyke'
p181
aS'girls'
p182
aS'vagina'
p183
aS'dumbass'
p184
aS'mickeyfinn'
p185
aS'murder'
p186
aS'nipplering'
p187
aS'buttmunch'
p188
aVconserv
p189
aS'sniggered'
p190
aS'popimp'
p191
aS'juggalo'
p192
aS'spaghettinigger'
p193
aS'motherlovebone'
p194
aS'beastial'
p195
aS'thirdleg'
p196
aS'bogan'
p197
aS'biteme'
p198
aS'urinate'
p199
aVnippler
p200
aS'hymen'
p201
aS'snot'
p202
aVlovejuic
p203
aS'badfuck'
p204
aS'athletesfoot'
p205
aS'footfuck'
p206
aVphungki
p207
aS'phungky'
p208
aS'addict'
p209
aS'genital'
p210
aS'transsexual'
p211
aVra8
p212
aS'prostitute'
p213
aVcathol
p214
aS'fuckfriend'
p215
aS'floo'
p216
aS'muff'
p217
aVbisexu
p218
aS'bomd'
p219
aS'queef'
p220
aS'bomb'
p221
aS'pric'
p222
aVshitful
p223
aS'assclown'
p224
aS'bohunk'
p225
aS'whitey'
p226
aS'queer'
p227
aVradic
p228
aS'intheass'
p229
aS'sonofbitch'
p230
aVcrackpip
p231
aVrearentri
p232
aS'dumbfuck'
p233
aS'gangsta'
p234
aS'fannyfucker'
p235
aS'fuckmehard'
p236
aS'geez'
p237
aS'niggur'
p238
aVnasti
p239
aS'smut'
p240
aS'nasty'
p241
aVmasterblast
p242
aS'slutting'
p243
aS"children's"
p244
aS'shitfull'
p245
aS'liquor'
p246
aS'reefer'
p247
aS'cunillingus'
p248
aS'damnation'
p249
aVcorrupt
p250
aS'asspacker'
p251
aS'carruth'
p252
aS'hebe'
p253
aS'chode'
p254
aS'peckerwood'
p255
aS'wn'
p256
aS'lotion'
p257
aS'fugly'
p258
aS'wtf'
p259
aVbulldyk
p260
aS'excrement'
p261
aS'livesex'
p262
aS'skankwhore'
p263
aS'cemetery'
p264
aS'cumjockey'
p265
aVpicaninni
p266
aS'muncher'
p267
aS'butt-fuckers'
p268
aVmeatbeatt
p269
aS'hitler'
p270
aS'headlights'
p271
aVtunneloflov
p272
aS'erect'
p273
aS'vatican'
p274
aVtarbabi
p275
aS'skankywhore'
p276
aS'jackass'
p277
aS'nlggor'
p278
aS'cumquat'
p279
aS'cunn'
p280
aS'spit'
p281
aS'flydie'
p282
aS'xxx'
p283
aVcrackwhor
p284
aS'spig'
p285
aS'pommie'
p286
aS'pecker'
p287
aS'cunt'
p288
aVfudgepack
p289
aS'weewee'
p290
aS'tang'
p291
aS'niggled'
p292
aS'niggles'
p293
aS'shhit'
p294
aVfacefuck
p295
aS'bicurious'
p296
aS'cocklover'
p297
aS'ginzo'
p298
aS'darkie'
p299
aS'kotex'
p300
aS'mothafuckaz'
p301
aS'vietcong'
p302
aS'foursome'
p303
aS'cooly'
p304
aS'honk'
p305
aS'babies'
p306
aS'lovepistol'
p307
aVcooli
p308
aS'european'
p309
aS'vibrater'
p310
aS'moky'
p311
aS'pube'
p312
aS'screw'
p313
aVstiffi
p314
aS'goyim'
p315
aS'nig'
p316
aS'addicts'
p317
aVmoki
p318
aS'redneck'
p319
aS'stiffy'
p320
aS'nip'
p321
aS'kid'
p322
aS'skankbitch'
p323
aS'kaffir'
p324
aVcockteas
p325
aS'cocksucking'
p326
aS'snigger'
p327
aS'cherrypopper'
p328
aS'pooping'
p329
aS'dipshit'
p330
aS'freefuck'
p331
aS'slutty'
p332
aS'bugger'
p333
aS'rimjob'
p334
aVgoddamnmuthafuck
p335
aVpiccaninni
p336
aVslutti
p337
aS'nastybitch'
p338
aS'butt-fuck'
p339
aVkinki
p340
aS'gipp'
p341
aVhillbilli
p342
aS'niggers'
p343
aS'assassination'
p344
aS'lezzo'
p345
aVspaghettibend
p346
aS'scrotum'
p347
aS'flatulence'
p348
aS'hitlerist'
p349
aS'arab'
p350
aVtwinki
p351
aS'roach'
p352
aS'hamas'
p353
aS'wetback'
p354
aS'mockey'
p355
aS'asspirate'
p356
aS'desire'
p357
aS'skanky'
p358
aVholestuff
p359
aS'nude'
p360
aS'honger'
p361
aS'gypp'
p362
aS'dead'
p363
aS'assjockey'
p364
aVhodgi
p365
aVskanki
p366
aS'syphilis'
p367
aVunfuck
p368
aS'fok'
p369
aS'burn'
p370
aVburi
p371
aS'sadis'
p372
aVbuttpir
p373
aS'gaymuthafuckinwhore'
p374
aS'herpes'
p375
aS'foreskin'
p376
aS'filipino'
p377
aS'filipina'
p378
aS'kondum'
p379
aS'vaginal'
p380
aS'russki'
p381
aS'sob'
p382
aS'kinky'
p383
aVasswip
p384
aS'lies'
p385
aS'sos'
p386
aS'payo'
p387
aS'whiskeydick'
p388
aS'coitus'
p389
aS'lovegoo'
p390
aS'buttface'
p391
aS'wab'
p392
aS'raped'
p393
aS'virgin'
p394
aS'homo'
p395
aS'raper'
p396
aS'thirdeye'
p397
aS'beatyourmeat'
p398
aS'amateur'
p399
aS'paki'
p400
aS'hodgie'
p401
aS'fore'
p402
aS'failure'
p403
aVphuke
p404
aVphukk
p405
aS'boang'
p406
aS'whiskey'
p407
aVminor
p408
aS'mooncricket'
p409
aS'propaganda'
p410
aS'darky'
p411
aS'liberal'
p412
aVfootact
p413
aS'gypo'
p414
aVmanhat
p415
aS'disease'
p416
aVdarki
p417
aVcocain
p418
aVhama
p419
aS'pooperscooper'
p420
aS'shit'
p421
aS'tit'
p422
aS'molester'
p423
aS'nastywhore'
p424
aVtest
p425
aVtranssexu
p426
aS'sheeney'
p427
aS'protestant'
p428
aS'dies'
p429
aS'geezer'
p430
aVfornic
p431
aS'died'
p432
aS'puss'
p433
aS'pusy'
p434
aS'lesbain'
p435
aS'jebus'
p436
aVpusi
p437
aS'urinary'
p438
aS'hijacker'
p439
aS'biatch'
p440
aVbreastlov
p441
aS'milf'
p442
aVurinari
p443
aVbomber
p444
aS'bitchin'
p445
aS'suicide'
p446
aS'terror'
p447
aVskankwhor
p448
aS'slutwhore'
p449
aVfourtwenti
p450
aS"nigger's"
p451
aS'fourtwenty'
p452
aS'lynch'
p453
aS'masturbate'
p454
aS'fisting'
p455
aS'coon'
p456
aS'penises'
p457
aVjacktheripp
p458
aS'die'
p459
aS'bountybar'
p460
aS'teat'
p461
aS'forni'
p462
aS'brothel'
p463
aS'dix'
p464
aS'doggystyle'
p465
aVniggardli
p466
aS'asswhore'
p467
aS'porn'
p468
aS'bulldyke'
p469
aS'fuckoff'
p470
aS'niggardly'
p471
aVbondag
p472
aS'molest'
p473
aS'rapist'
p474
aVhymi
p475
aVsuckm
p476
aS'nigglings'
p477
aVinterraci
p478
aS'kunnilingus'
p479
aS'ejaculating'
p480
aS'explosion'
p481
aS'hymie'
p482
aS'funeral'
p483
aS'muslim'
p484
aS'bumblefuck'
p485
aS'pissoff'
p486
aVbulldik
p487
aS'farting'
p488
aS'molestation'
p489
aS'canadian'
p490
aS'breastjob'
p491
aS'fuckfest'
p492
aS'suckmydick'
p493
aS'motherfucking'
p494
aS'pixy'
p495
aS'hottotrot'
p496
aS'swallower'
p497
aVfuckabl
p498
aS'tunneloflove'
p499
aVpixi
p500
aS'sonofabitch'
p501
aS'shithapens'
p502
aS'asskisser'
p503
aS'angry'
p504
aS'kumbullbe'
p505
aS'horniest'
p506
aS'creamy'
p507
aS"snigger's"
p508
aS'perv'
p509
aS'negroes'
p510
aS'asswipe'
p511
aS'australian'
p512
aS'skum'
p513
aS'clitoris'
p514
aS'cocknob'
p515
aS'footfucker'
p516
aVassrang
p517
aVbitem
p518
aS'abortion'
p519
aS'niggaz'
p520
aS'commie'
p521
aS'wanker'
p522
aS'funfuck'
p523
aS'niggah'
p524
aS'puntang'
p525
aS'fuck'
p526
aVnippl
p527
aS'stroke'
p528
aVabort
p529
aS'chin'
p530
aS'macaca'
p531
aVpenthous
p532
aS'dyke'
p533
aS'phukking'
p534
aS'testicle'
p535
aVflang
p536
aVmocki
p537
aS'cocktail'
p538
aS'dickforbrains'
p539
aS'groe'
p540
aS'mocky'
p541
aS'mad'
p542
aVgreasebal
p543
aS'suck'
p544
aS'dahmer'
p545
aVmam
p546
aS'insest'
p547
aS'phuked'
p548
aS'niggaracci'
p549
aS'jigga'
p550
aS'deposit'
p551
aS'african'
p552
aS'drunken'
p553
aS'lsd'
p554
aS'dyefly'
p555
aS'pussylicker'
p556
aS'rabbi'
p557
aS'kike'
p558
aVdyefli
p559
aS'sweetness'
p560
aS'buttplug'
p561
aS'slimeball'
p562
aS'nymph'
p563
aVshithapen
p564
aS'swastika'
p565
aS'jiz'
p566
aVejacul
p567
aVcocklick
p568
aVdingleberri
p569
aS'killer'
p570
aVcherrypopp
p571
aS'kkk'
p572
aS'dingleberry'
p573
aS'jacktheripper'
p574
aS'bullshit'
p575
aS'execute'
p576
aS'cockcowboy'
p577
aVhonker
p578
aS'barfface'
p579
aS'honkey'
p580
aS'dicklick'
p581
aS'hijack'
p582
aS'backdoorman'
p583
aS'ontherag'
p584
aS'jiga'
p585
aS'jigg'
p586
aS'swalow'
p587
aS'ejaculation'
p588
aS'whiskydick'
p589
aS'spankthemonkey'
p590
aS'chickslick'
p591
aS'sexually'
p592
aVprostitut
p593
aVgirl
p594
aS'krap'
p595
aS'minority'
p596
aS'phuq'
p597
aVspermherd
p598
aS'intercourse'
p599
aS'kummer'
p600
aS'pisshead'
p601
aS'lowlife'
p602
aS'phuk'
p603
aS'shithead'
p604
aVdiseas
p605
aS'booby'
p606
aS'boobs'
p607
aVargi
p608
aVboobi
p609
aS'meatrack'
p610
aS'buttmuncher'
p611
aS'asskiss'
p612
aS'mastabate'
p613
aVpooperscoop
p614
aS'turd'
p615
aS'blind'
p616
aS'feltch'
p617
aVmanpast
p618
aS'twinkie'
p619
aS'pornflick'
p620
aS'fight'
p621
aS'dego'
p622
aS'dickweed'
p623
aS'barface'
p624
aS'jugs'
p625
aS'arsehole'
p626
aVpussypound
p627
aS'escort'
p628
aVslantey
p629
aVwhite
p630
aS'butchbabes'
p631
aS'anus'
p632
aS'pee-pee'
p633
aS'shitola'
p634
aS'snatch'
p635
aS'butt'
p636
aS'hillbillies'
p637
aS'peck'
p638
aVorgi
p639
aS'orga'
p640
aS'orgy'
p641
aS'snowback'
p642
aS'pimpsimp'
p643
aS'necro'
p644
aVconspiraci
p645
aS'slav'
p646
aS'hoes'
p647
aVreesti
p648
aS'marijuana'
p649
aVdevilworshipp
p650
aS'conspiracy'
p651
aS'playgirl'
p652
aS'buried'
p653
aS'nazi'
p654
aS'seppo'
p655
aS'squaw'
p656
aS'meatbeatter'
p657
aS'shoot'
p658
aS'destroy'
p659
aS'fagging'
p660
aS'bitching'
p661
aS'fuckme'
p662
aS'shitted'
p663
aS'prick'
p664
aVbuttfac
p665
aS'assault'
p666
aS'shithouse'
p667
aS'shitter'
p668
aVabus
p669
aS'lesbayn'
p670
aS'pimpjuic'
p671
aVclitori
p672
aS'sexing'
p673
aS'snatchpatch'
p674
aS'beaner'
p675
aS'zipperhead'
p676
aS'jizz'
p677
aS'assmunch'
p678
aS'sexslave'
p679
aS'german'
p680
aVslopi
p681
aS'jizm'
p682
aS'slopy'
p683
aVthirdey
p684
aS'hustler'
p685
aVtrot
p686
aS'slut'
p687
aS'gotohell'
p688
aVmastab
p689
aS'dick'
p690
aS'crime'
p691
aS'black'
p692
aS'buttstain'
p693
aVbarelyleg
p694
aS'hostage'
p695
aS'mormon'
p696
aS'pu55y'
p697
aS'cummer'
p698
aS'munt'
p699
aS'pu55i'
p700
aS'pimp'
p701
aS'homobangers'
p702
aS'naked'
p703
aS'stupid'
p704
aS'bombs'
p705
aS'lovemuscle'
p706
aS'quickie'
p707
aS'strapon'
p708
aS'wetspot'
p709
aS'kaffre'
p710
aVflydi
p711
aS'fucktard'
p712
aS'dickhead'
p713
aVroundey
p714
aS'whigger'
p715
aVflydy
p716
aS'aroused'
p717
aS'israeli'
p718
aS'diddle'
p719
aVnooki
p720
aS'peehole'
p721
aS'wuss'
p722
aS'farty'
p723
aS'koon'
p724
aS'pussyfucker'
p725
aVbutchbab
p726
aVcuntsuck
p727
aS'killing'
p728
aVfarti
p729
aS'sniggering'
p730
aS'sexwhore'
p731
aS'noonan'
p732
aS'fuckbag'
p733
aS'shitfit'
p734
aS'cancer'
p735
aS'color'
p736
aS'pot'
p737
aS'period'
p738
aS'spank'
p739
aS'cockqueen'
p740
aS'poo'
p741
aS'pom'
p742
aS'mulatto'
p743
aS'stroking'
p744
aS'godammit'
p745
aS'tramp'
p746
aVsuicid
p747
aS'lapdance'
p748
aVtwobitwhor
p749
aS'sexhouse'
p750
aVdickwe
p751
aS'robber'
p752
aS'crotchjockey'
p753
aS'premature'
p754
aS'fuckable'
p755
aS'lovegun'
p756
aS'scum'
p757
aS'cock'
p758
aS'penthouse'
p759
aS'cigs'
p760
aS'servant'
p761
aS'assfuck'
p762
aS'gringo'
p763
aS'bestial'
p764
aVgonzaga
p765
aS'beaver'
p766
aS'spunk'
p767
aVmole
p768
aS'motherfuckin'
p769
aVtinkl
p770
aS'pornprincess'
p771
aVcockrid
p772
aS'boonie'
p773
aS'purinapricness'
p774
aS'bondage'
p775
aVgenit
p776
aS'copulate'
p777
aS'niggor'
p778
aS'breastman'
p779
aS'cacker'
p780
aS'fingerfucker'
p781
aVviolenc
p782
aVexecut
p783
aVsodomis
p784
aS'smackthemonkey'
p785
aS'loverocket'
p786
aVprimetim
p787
aS'tuckahoe'
p788
aS'pissing'
p789
aS'kill'
p790
aS'cocksman'
p791
aS'blow'
p792
aS'assbagger'
p793
aS'death'
p794
aS'fingerfood'
p795
aS'fuckyou'
p796
aVpussylip
p797
aVbarfac
p798
aS'sodom'
p799
aS'spermhearder'
p800
aS'kills'
p801
aVsexwhor
p802
aS'russkie'
p803
aS'execution'
p804
aS'fastfuck'
p805
aS'deth'
p806
aS'freakfuck'
p807
aS'sleezeball'
p808
aS'boonga'
p809
aVvagin
p810
aS'kafir'
p811
aVpee-pe
p812
aVasspuppi
p813
aS'cockblocker'
p814
aS'timbernigger'
p815
aS'racial'
p816
aS'thicklips'
p817
aS'gross'
p818
aS'mothafucker'
p819
aS'bootycall'
p820
aS'uck'
p821
aS'moslem'
p822
aS'nook'
p823
aS'mothafucked'
p824
aS'shiting'
p825
aS'redlight'
p826
aS'shitfaced'
p827
aS'willie'
p828
aS'knife'
p829
aS'upskirt'
p830
aVgyppi
p831
aS'cumbubble'
p832
aS'gyppo'
p833
aS'polack'
p834
aS'gyppy'
p835
aVpussyeat
p836
aVshithous
p837
aS'kaffer'
p838
aS'jeez'
p839
aS'gonzagas'
p840
aS'violence'
p841
aS'cameljockey'
p842
aS'threesome'
p843
aS'assassin'
p844
aS'honky'
p845
aS'whites'
p846
aVwhorehous
p847
aVhonki
p848
aVhomobang
p849
aS'welcher'
p850
aS'doo-doo'
p851
aS'transexual'
p852
aS'chinky'
p853
aS'slopey'
p854
aS'racist'
p855
aVchinki
p856
aS'hookers'
p857
aS'catholics'
p858
aS'jizzum'
p859
aVjug
p860
aS'coolie'
p861
aS'slavedriver'
p862
aS'rump'
p863
aVanalanni
p864
aVgoldenshow
p865
aVbicuri
p866
aS'hotpussy'
p867
aVdirti
p868
aS'niggarding'
p869
aVhotpussi
p870
aS'dirty'
p871
aS'moles'
p872
aS'toilet'
p873
aVnutfuck
p874
aS'arabs'
p875
aS'choad'
p876
aVjizjuic
p877
aS'iblowu'
p878
aS'poontang'
p879
aS'lovejuice'
p880
aS'idiot'
p881
aS'dumbbitch'
p882
aS'poop'
p883
aS'sniggers'
p884
aS'slant'
p885
aS'cocksuck'
p886
aS'snownigger'
p887
aS'poon'
p888
aS"niggardliness's"
p889
aS'beastiality'
p890
aS'trannie'
p891
aVweewe
p892
aVhuski
p893
aS'hardon'
p894
aS'sluts'
p895
aS'boong'
p896
aS'husky'
p897
aVbooni
p898
aS'oral'
p899
aVbi-sexu
p900
aS'chinese'
p901
aVsamckdaddi
p902
aS'feltcher'
p903
aS'shitstain'
p904
aS'welfare'
p905
aS'slutt'
p906
aVchildren
p907
aS'kums'
p908
aS'whitenigger'
p909
aS'nlgger'
p910
aVslimebal
p911
aVnastywhor
p912
aS'easyslut'
p913
aS'fat'
p914
aS'coloured'
p915
aS'chinaman'
p916
aS'fag'
p917
aS'shaggin'
p918
aS'anal'
p919
aS'assmuncher'
p920
aS'blackout'
p921
aS'buttfuckers'
p922
aS'pendy'
p923
aS'orgasm'
p924
aS'rigger'
p925
aS'twobitwhore'
p926
aS'slopehead'
p927
aS'rere'
p928
aS'usama'
p929
aS'fuckinright'
p930
aS'pickaninny'
p931
aS'fucks'
p932
aS'abo'
p933
aVasspir
p934
aVfuckm
p935
aVpickaninni
p936
aS'fucka'
p937
aS'gangbanger'
p938
aS'trailertrash'
p939
aS'christian'
p940
aS'screwyou'
p941
aS'tarbaby'
p942
aVpubiclic
p943
aS'threeway'
p944
aS'gangbanged'
p945
aS'bulldike'
p946
aS'bible'
p947
aS'colored'
p948
aS'gangbang'
p949
aVmuffindiv
p950
aVlovebon
p951
aS'wigger'
p952
aS'felcher'
p953
aS'pocho'
p954
aS'dickman'
p955
aS'bunga'
p956
aVdixiedyk
p957
aS'africa'
p958
aS'piccaninny'
p959
aVtitlick
p960
aS'mggor'
p961
aVasspack
p962
aS'cocksucer'
p963
aVliber
p964
aS'puke'
p965
aS'shite'
p966
aS'shits'
p967
aS'cyberslimer'
p968
aS'israel'
p969
aVdesir
p970
aVwelfar
p971
aS'hindoo'
p972
aS'jizim'
p973
aVskankywhor
p974
aS'fuckit'
p975
aS'doom'
p976
aS'clamdigger'
p977
aS'farted'
p978
aVknocker
p979
aVremain
p980
aS'sniper'
p981
aS'greaseball'
p982
aS'scag'
p983
aVintercours
p984
aS'shagging'
p985
aVexplos
p986
aS'fuckpig'
p987
aS'scat'
p988
aS'homicide'
p989
aS'mothafucking'
p990
aS'crapola'
p991
aS'muffdiver'
p992
aS'limpdick'
p993
aS'fckcum'
p994
aS'tongethruster'
p995
aS'fu'
p996
aS'fungus'
p997
aS'terrorist'
p998
aS'kigger'
p999
aS'bumfuck'
p1000
aVsodomi
p1001
aS'goddamnmuthafucker'
p1002
aS'sodomy'
p1003
aVeatm
p1004
aS'jigaboo'
p1005
aVcigarett
p1006
aS'muffdive'
p1007
aS'mexican'
p1008
aS'bullcrap'
p1009
aVpendi
p1010
aS'urine'
p1011
aVbarffac
p1012
aS'hosejob'
p1013
aS'hell'
p1014
aS'cockfight'
p1015
aS'alla'
p1016
aS'cuntfuck'
p1017
aS'negroid'
p1018
aVlickm
p1019
aVpeni
p1020
aVarsehol
p1021
aS'sucker'
p1022
aS'libido'
p1023
aS'gook'
p1024
aVquashi
p1025
aS'fuckface'
p1026
aS'vomit'
p1027
aS'bigger'
p1028
aS'erection'
p1029
aVfairi
p1030
aS'bigbastard'
p1031
aS'fingerfucked'
p1032
aS'pubiclice'
p1033
aS'fairy'
p1034
aS'mastabater'
p1035
aS'mastrabator'
p1036
aS'limey'
p1037
aS'taff'
p1038
aS'fuckknob'
p1039
aVfist
p1040
aS'dripdick'
p1041
aS'blacks'
p1042
aVlezb
p1043
aS'lucifer'
p1044
aS'lezz'
p1045
aS'crotchrot'
p1046
aS'samckdaddy'
p1047
aS'ass'
p1048
aS'bast'
p1049
aS'pud'
p1050
aS'motherfucker'
p1051
aS'heroin'
p1052
aS'fatass'
p1053
aVquicki
p1054
aS'motherfucked'
p1055
aS'inthebuff'
p1056
aS'jew'
p1057
aS'kunt'
p1058
aS'rearend'
p1059
aS'american'
p1060
aS'butchdyke'
p1061
aVpenetr
p1062
aS"niggard's"
p1063
aVsnownigg
p1064
aS'pommy'
p1065
aS'radical'
p1066
aS'hotdamn'
p1067
aS'dink'
p1068
aS'titbitnipply'
p1069
aS'dong'
p1070
aS'asslicker'
p1071
aVtitbitnippli
p1072
aS'asscowboy'
p1073
aS'sexymoma'
p1074
aS'kumming'
p1075
aS'mams'
p1076
aS'pi55'
p1077
aS'cumqueen'
p1078
aS'devilworshipper'
p1079
aS'bazongas'
p1080
aVilleg
p1081
aVpommi
p1082
aVclamdiv
p1083
aVlactat
p1084
aS'titfuck'
p1085
aS'assfucker'
p1086
aVballlick
p1087
aVasshol
p1088
aVasshor
p1089
aS'stupidfucker'
p1090
aS'cuntlicking'
p1091
aS'rentafuck'
p1092
aS'raghead'
p1093
aS'kink'
p1094
aVasslov
p1095
aS'manpaste'
p1096
aVmotherlovebon
p1097
aS'weapon'
p1098
aS'nutfucker'
p1099
aS'coondog'
p1100
aS'sexhound'
p1101
aS'backseat'
p1102
aVlie
p1103
aS'dipstick'
p1104
aS'heterosexual'
p1105
aS'skankfuck'
p1106
aVsexhous
p1107
aS'cigarette'
p1108
aS'jesuschrist'
p1109
aVbunghol
p1110
aS'gin'
p1111
aVtongu
p1112
aS'ky'
p1113
aS'carpetmuncher'
p1114
aS'fuckingbitch'
p1115
aVshithappen
p1116
aS'gyp'
p1117
aS'spermbag'
p1118
aS'unfuckable'
p1119
aS'cocklicker'
p1120
aVrandi
p1121
aS'testicles'
p1122
aS'titfuckin'
p1123
aS'shiteater'
p1124
aS'failed'
p1125
aS'nittit'
p1126
aS'randy'
p1127
aS'condom'
p1128
aS'spermherder'
p1129
aS'tittie'
p1130
aS'niggard'
p1131
aS'hiv'
p1132
aS'shitforbrains'
p1133
aS'slime'
p1134
aS'lezbo'
p1135
aS'breast'
p1136
aS'damnit'
p1137
aS'lezbe'
p1138
aS'enemy'
p1139
aS'cunntt'
p1140
aVenemi
p1141
aS'enema'
p1142
aS'dixiedyke'
p1143
aS'cocktease'
p1144
aS'jade'
p1145
aS'niggling'
p1146
aS'sex'
p1147
aS'dumb'
p1148
aS'barf'
p1149
aS'angie'
p1150
aS'kumbubble'
p1151
aS'wop'
p1152
aS'butt-bang'
p1153
aS'beatoff'
p1154
aS'givehead'
p1155
aS'slapper'
p1156
aS'fuckinnuts'
p1157
aS'corruption'
p1158
aS'piss'
p1159
aS'beat-off'
p1160
aS'latin'
p1161
aVhooter
p1162
aS'pisser'
p1163
aS'pisses'
p1164
aS'lickme'
p1165
aS'kunilingus'
p1166
aS'clamdiver'
p1167
aS'pissed'
p1168
aVspermacid
p1169
aS'loadedgun'
p1170
aS'retarded'
p1171
aS'pindick'
p1172
aS'whitetrash'
p1173
aS'executioner'
p1174
aS'reject'
p1175
aS'drunk'
p1176
aVsweet
p1177
aS'rearentry'
p1178
aS'church'
p1179
aS'primetime'
p1180
aS'sextogo'
p1181
aS'grostulation'
p1182
aS'whop'
p1183
aS'damn'
p1184
aS'turnon'
p1185
aVhomosexu
p1186
aS'fuckher'
p1187
aS'gay'
p1188
aS'slanteye'
p1189
aS'fire'
p1190
aVmufflikc
p1191
aS'dildo'
p1192
aVlezbefriend
p1193
aVbitchi
p1194
aS'trojan'
p1195
aS'towelhead'
p1196
aS'shitfuck'
p1197
aS'felching'
p1198
aVfug
p1199
aS'masterblaster'
p1200
aS'fuc'
p1201
aS'hooters'
p1202
aVbutchdyk
p1203
aS'phuking'
p1204
aS'demon'
p1205
aS'jackshit'
p1206
aVrim
p1207
aVrib
p1208
aS'shav'
p1209
aS'shat'
p1210
aVlowlif
p1211
aS'slideitin'
p1212
aS'shag'
p1213
aS'niggards'
p1214
aS'cumming'
p1215
aS'itch'
p1216
aS'kock'
p1217
aS'pussypounder'
p1218
aS'shitlist'
p1219
aS'feces'
p1220
aVdixiedik
p1221
aS'nooner'
p1222
aVcocki
p1223
aVmastrab
p1224
aS'cocky'
p1225
aS'pohm'
p1226
aS'pussylover'
p1227
aVdickforbrain
p1228
aS'cum'
p1229
aS'kumquat'
p1230
aVcemeteri
p1231
aVshitti
p1232
aVheterosexu
p1233
aS'ethiopian'
p1234
aS'pudboy'
p1235
aS'shitty'
p1236
aS'blowjob'
p1237
aS'bitchslap'
p1238
aS'motherfuckings'
p1239
aS'italiano'
p1240
aS'williewanker'
p1241
aS'panties'
p1242
aS'crackwhore'
p1243
aS'fagot'
p1244
aS'nipple'
p1245
aS'manhater'
p1246
aVmastabat
p1247
aVassblast
p1248
aS'shinola'
p1249
aS'fucking'
p1250
aS'goddamn'
p1251
aVlingeri
p1252
aS'fuckina'
p1253
aS'handjob'
p1254
aS'nookey'
p1255
aS'mideast'
p1256
aS'pros'
p1257
aS'fatfuck'
p1258
aVsleezebal
p1259
aS'dragqueen'
p1260
aS'pee'
p1261
aS'crack-whore'
p1262
aS'sleezebag'
p1263
aVcreami
p1264
aS'bi'
p1265
aS'crackpipe'
p1266
aS'taboo'
p1267
aS'poorwhitetrash'
p1268
aS'faith'
p1269
aS'firing'
p1270
aVpussylick
p1271
aS'cockblock'
p1272
aVfootlick
p1273
aS'assklown'
p1274
aS'osama'
p1275
aS'hapa'
p1276
aVhenhous
p1277
aS'mothafuckings'
p1278
aS'masterbate'
p1279
aS'masturbating'
p1280
aVprematur
p1281
aS'mosshead'
p1282
aS'harem'
p1283
aS'glazeddonut'
p1284
aS'jewish'
p1285
aS'cybersex'
p1286
aS'crapper'
p1287
aS'flydye'
p1288
aVisra
p1289
aVangri
p1290
aVcig
p1291
aS'doodoo'
p1292
aS'buttfuck'
p1293
aS'horney'
p1294
aS'uk'
p1295
aS'butthead'
p1296
aS'cameltoe'
p1297
aS'showtime'
p1298
aS'cunteyed'
p1299
aS'mothafuckin'
p1300
aS'chav'
p1301
aS'fatso'
p1302
aS'goddamit'
p1303
aS'nigre'
p1304
aS'nigra'
p1305
aVeatpussi
p1306
aS'tard'
p1307
aS'faeces'
p1308
aS'tits'
p1309
aS'assassinate'
p1310
aS'eatpussy'
p1311
aVwuzzi
p1312
aVlucif
p1313
aS'slutwear'
p1314
aS'fingerfuck'
p1315
aVspaghettinigg
p1316
aS'zigabo'
p1317
aS'uterus'
p1318
aS"israel's"
p1319
aS'pussyeater'
p1320
aS'lezbefriends'
p1321
aS'niggle'
p1322
aVkanak
p1323
aS'conservative'
p1324
aS'yellowman'
p1325
aS'deepthroat'
p1326
aS'blackman'
p1327
aVcrack-whor
p1328
aS'palesimian'
p1329
aVasswhor
p1330
aS'fatah'
p1331
aS'gatorbait'
p1332
aS'torture'
p1333
aS'jism'
p1334
aVwilliewank
p1335
aS'vibrator'
p1336
aVspoog
p1337
aS'evl'
p1338
aS'niggerhole'
p1339
aVshiteat
p1340
aS'goldenshower'
p1341
aS'sodomize'
p1342
aS'booty'
p1343
aVpornographi
p1344
aVbooti
p1345
aS'pornography'
p1346
aS'fellatio'
p1347
aS'areola'
p1348
aS'interracial'
p1349
aS'twink'
p1350
aS'bollick'
p1351
aS'deapthroat'
p1352
aVwayst
p1353
aVvibrat
p1354
aS'datnigga'
p1355
aVpoverti
p1356
aS'analsex'
p1357
aVsexi
p1358
aS'radicals'
p1359
aS'shited'
p1360
aS'poverty'
p1361
aS'slaughter'
p1362
aS'sexy'
p1363
aS'lez'
p1364
aS'sexy-slim'
p1365
aS'geni'
p1366
aS'fingerfucking'
p1367
aS'limy'
p1368
aS'japcrap'
p1369
aVlimi
p1370
aVthicklip
p1371
aS'peni5'
p1372
aS'crap'
p1373
aS'barelylegal'
p1374
aS'remains'
p1375
aS'illegal'
p1376
aS'fuckmonkey'
p1377
aS'sodomite'
p1378
aVsandnigg
p1379
aVcrab
p1380
aS'babe'
p1381
aVpenil
p1382
aVbabi
p1383
aVslavedriv
p1384
aS'titfucker'
p1385
aS'pussylips'
p1386
aS'penis'
p1387
aS'chinamen'
p1388
aVwomen
p1389
aS'balls'
p1390
aVtransexu
p1391
aVslutwhor
p1392
aS'reestie'
p1393
aS'lubejob'
p1394
aVhostag
p1395
aVfreakyfuck
p1396
aS'bestiality'
p1397
aS'balllicker'
p1398
aS'tonguethrust'
p1399
aS'boner'
p1400
aVcrimin
p1401
aS'rape'
p1402
aS'dragqween'
p1403
aS'porchmonkey'
p1404
aVgaymuthafuckinwhor
p1405
aS'roundeye'
p1406
aS'sexkitten'
p1407
aS'suckoff'
p1408
aS'skinflute'
p1409
aS'vibr'
p1410
aS'cuntsucker'
p1411
aS'gyppie'
p1412
aS'dickwad'
p1413
aS'fart'
p1414
aS'abuse'
p1415
aS'sixtynine'
p1416
aS'ethnic'
p1417
aS'bombers'
p1418
aS'pansies'
p1419
aS'kanake'
p1420
aS'lactate'
p1421
aS'asspuppies'
p1422
aS'sixsixsix'
p1423
aS'bunghole'
p1424
aS'moneyshot'
p1425
aS'jigger'
p1426
aVhorni
p1427
aVcornhol
p1428
aVcommi
p1429
aS'horny'
p1430
aS'gubba'
p1431
aS'asslover'
p1432
aS'schlong'
p1433
aVspreadeagl
p1434
aS'criminal'
p1435
aS'crash'
p1436
aS'dike'
p1437
aVthreesom
p1438
aS'niglet'
p1439
aS'republican'
p1440
aS'ecstacy'
p1441
aS'fatfucker'
p1442
aVbutchdik
p1443
aVecstaci
p1444
aS'lovebone'
p1445
aS'lingerie'
p1446
aVtranni
p1447
aS'sandm'
p1448
aS'spigotty'
p1449
aS'skank'
p1450
aS'tranny'
p1451
aS'cocksmoker'
p1452
aS'meth'
p1453
aS'sexual'
p1454
aVspigotti
p1455
aS'henhouse'
p1456
aS'eatballs'
p1457
aS'semen'
p1458
aS'mgger'
p1459
aS'ejaculate'
p1460
aS'cra5h'
p1461
aS'dive'
p1462
aS'spaghettibender'
p1463
aS'shitfucker'
p1464
aS'prickhead'
p1465
aS'pearlnecklace'
p1466
aS'bigass'
p1467
aS'whacker'
p1468
aVniggerhol
p1469
aS'buttman'
p1470
aS'shitface'
p1471
aS'jesus'
p1472
aS'twat'
p1473
aVars
p1474
aS'bitch'
p1475
aS'lolita'
p1476
aS'niggardliness'
p1477
aS'pimpjuice'
p1478
aS'fuckers'
p1479
aS'backdoor'
p1480
aS'attack'
p1481
aVmuffdiv
p1482
aS'spermacide'
p1483
aS'negro'
p1484
aS'assman'
p1485
aS'tampon'
p1486
aVmasturb
p1487
aVbuggeri
p1488
aS'phonesex'
p1489
aVcumbubbl
p1490
aS'spitter'
p1491
aS'buggery'
p1492
aS'flasher'
p1493
aS'sexfarm'
p1494
aS'cohee'
p1495
aS'clit'
p1496
aVfuckinnut
p1497
aS'bisexual'
p1498
aS'fuks'
p1499
aVfail
p1500
aVsyphili
p1501
aVpussylov
p1502
aS'catholic'
p1503
aS'bastard'
p1504
aS'pornking'
p1505
aS'asshole'
p1506
aS'goddamned'
p1507
aS'buttpirate'
p1508
aVtesticl
p1509
aS'fister'
p1510
aS'goddamnes'
p1511
aS'lugan'
p1512
aS'asshore'
p1513
aS'spick'
p1514
aS'ballsack'
p1515
aVweeni
p1516
aS'muffindiver'
p1517
aS'ejaculated'
p1518
aS'cuntlicker'
p1519
aS'titlover'
p1520
aS'assholes'
p1521
aVpurinapr
p1522
aS'orgasim'
p1523
aS'fear'
p1524
aVbazonga
p1525
aS'jap'
p1526
aS'butt-fucker'
p1527
aS'satan'
p1528
aS'pussie'
p1529
aS'communist'
p1530
aS'felatio'
p1531
aS'hijacking'
p1532
aS'abbo'
p1533
aS'dope'
p1534
aS'whash'
p1535
aS'joint'
p1536
aS'fraud'
p1537
aS'wog'
p1538
aS'crabs'
p1539
aS'sperm'
p1540
aS'hoser'
p1541
aS'jiggabo'
p1542
aS'fingerfuckers'
p1543
aS'pimped'
p1544
aVcocksmok
p1545
aS'skankybitch'
p1546
aS'pimper'
p1547
aS'jijjiboo'
p1548
aS'magicwand'
p1549
aS'cuntlick'
p1550
aVfuner
p1551
aS'bollock'
p1552
aVfannyfuck
p1553
aVtrisexu
p1554
aVbibl
p1555
aS'ra8s'
p1556
aS'panti'
p1557
aS'jerkoff'
p1558
aS'pistol'
p1559
aS'shitoutofluck'
p1560
aS'tantra'
p1561
aS'hummer'
p1562
aVcopul
p1563
aS'bigbutt'
p1564
aS'nudger'
p1565
aS'holestuffer'
p1566
aS'triplex'
p1567
aS'hobo'
p1568
aS'titties'
p1569
aS'sexed'
p1570
aS'drug'
p1571
aVbazoom
p1572
aS'asshat'
p1573
aS'spooge'
p1574
aS'swallow'
p1575
aVhussi
p1576
aS'butchdike'
p1577
aVsodomit
p1578
aS'hussy'
p1579
aS'incest'
p1580
aS'buttbang'
p1581
aS'mafia'
p1582
aS'rimming'
p1583
aS'willy'
p1584
aS'fistfucking'
p1585
aVwilli
p1586
aVwhitenigg
p1587
aS'motherfuck'
p1588
aS'quim'
p1589
aS'mothafucka'
p1590
aS'shawtypimp'
p1591
aVcamelto
p1592
aS'homosexual'
p1593
aVboodi
p1594
aS'shortfuck'
p1595
aS'scallywag'
p1596
aS'crappy'
p1597
aS'doggiestyle'
p1598
aS'boody'
p1599
aS'niggarded'
p1600
aS'dickless'
p1601
aVcrappi
p1602
aS'fudgepacker'
p1603
aVfuckwhor
p1604
aS"negro's"
p1605
aS'fistfuck'
p1606
aS'harder'
p1607
aS'fornicate'
p1608
aS'mockie'
p1609
aVfondl
p1610
aS'sandnigger'
p1611
aVcyberslim
p1612
aS'transvestite'
p1613
aS'honkers'
p1614
aS'whore'
p1615
aS'pissin'
p1616
aS'shooting'
p1617
aVjapanes
p1618
aVheadlight
p1619
aVtransvestit
p1620
aS'assblaster'
p1621
aS'fubar'
p1622
aS'suckmyass'
p1623
aS'ikey'
p1624
aVball
p1625
aS'slave'
p1626
aS'cockhead'
p1627
aVkumbullb
p1628
aVsadi
p1629
aS'fucker'
p1630
aS'beast'
p1631
aS'fucked'
p1632
aS'breastlover'
p1633
aS'shitting'
p1634
aS'arse'
p1635
aS'retard'
p1636
aS'felch'
p1637
aVcolour
p1638
aS'banging'
p1639
aS'sodomise'
p1640
aS'soviet'
p1641
aS'fuckfreak'
p1642
aVlovemuscl
p1643
aVtitlov
p1644
aS'molestor'
p1645
aS'gun'
p1646
aVkumbubbl
p1647
aS'buggered'
p1648
aVpeehol
p1649
aS'titty'
p1650
aS'killed'
p1651
aVtitti
p1652
aVlapdanc
p1653
aS'lesbin'
p1654
aS'crack'
p1655
aS'peepshow'
p1656
aS'cunilingus'
p1657
aS'stupidfuck'
p1658
aS'fairies'
p1659
aVtongethrust
p1660
aS'teste'
p1661
aVsissi
p1662
aS'luckycammeltoe'
p1663
aS'fuckbuddy'
p1664
aS'loser'
p1665
aS'heeb'
p1666
aVbeastal
p1667
aS'sissy'
p1668
aVfuckbuddi
p1669
aS'nigga'
p1670
aS'cuntfucker'
p1671
aS'assmonkey'
p1672
aVniggl
p1673
aS'facefucker'
p1674
aS'brea5t'
p1675
aS'gonorrehea'
p1676
aS'gummer'
p1677
aS'dago'
p1678
aS'fucck'
p1679
aS'sixtyniner'
p1680
aVshowtim
p1681
aVeatbal
p1682
aVmasterb
p1683
aS'picaninny'
p1684
aS'virginbreaker'
p1685
aVdoggystyl
p1686
aVnake
p1687
aS'cunnilingus'
p1688
aS'murderer'
p1689
aVgotohel
p1690
aVskinflut
p1691
aS'devil'
p1692
aS'footaction'
p1693
aVluckycammelto
p1694
aS'stagg'
p1695
aVrefuge
p1696
aS'ribbed'
p1697
aS'cumfest'
p1698
aVpiki
p1699
aS'titjob'
p1700
aS'mofo'
p1701
aS'tongue'
p1702
aS'piky'
p1703
aS'vulva'
p1704
aS'nignog'
p1705
aS'pussy'
p1706
aS'tortur'
p1707
aS'jimfish'
p1708
aVvirginbreak
p1709
aVpussi
p1710
aS'shitcan'
p1711
aS'yankee'
p1712
aS'nuke'
p1713
aS'niggerhead'
p1714
aS'nastyho'
p1715
aS'clogwog'
p1716
aVsixtynin
p1717
aS'bitchez'
p1718
aVkrappi
p1719
aVcocksuc
p1720
aS'bitcher'
p1721
aS'bitches'
p1722
aS'pixie'
p1723
aS'fuckhead'
p1724
aS'ho'
p1725
aS'krappy'
p1726
aS'rectum'
p1727
aVshitforbrain
p1728
aVdoggiestyl
p1729
aVpansi
p1730
aS'baptist'
p1731
aS'tonguetramp'
p1732
aVkaffr
p1733
aS'pansy'
p1734
aS'tosser'
p1735
aS'spreadeagle'
p1736
aS'faggot'
p1737
aS'junglebunny'
p1738
aVsexslav
p1739
aS'sexpot'
p1740
aS'pikey'
p1741
aVcarpetmunch
p1742
aS'piker'
p1743
aS'titlicker'
p1744
aS'nookie'
p1745
aS'pussycat'
p1746
aS'headfuck'
p1747
aS'spic'
p1748
aS'boom'
p1749
aS'sick'
p1750
aS'boob'
p1751
aS'waysted'
p1752
aS'fondle'
p1753
aS'quashie'
p1754
aS'flange'
p1755
aS'dixiedike'
p1756
aS'bitchy'
p1757
aS'wetb'
p1758
aS'argie'
p1759
aS'fuuck'
p1760
aS'nastyslut'
p1761
aS'pocha'
p1762
aS'pocketpool'
p1763
aVshitfac
p1764
aVjunglebunni
p1765
aVgrostul
p1766
atp1767
Rp1768
.