c__builtin__
set
p0
((lp1
Vhyper
p2
aVrinky-dink
p3
aVhuffi
p4
aVbomb
p5
aVwire
p6
aVdeck
p7
aVnuts
p8
aVexcellent
p9
aVbombed
p10
aVrathol
p11
aVbooze
p12
aVhuffy
p13
aVdough
p14
aVgo
p15
aVklutz
p16
aVchicken
p17
aVdynamit
p18
aVspuds
p19
aVschmuck
p20
aVbummed
p21
aVcreamed
p22
aVcut
p23
aVcuffs
p24
aVgourd
p25
aVpeanut
p26
aVfix
p27
aVcushy
p28
aVbust
p29
aVbench
p30
aVjam
p31
aVbummer
p32
aVpeanuts
p33
aVbread
p34
aVgoof
p35
aVgrubbi
p36
aVcruising
p37
aVsmash
p38
aVbeat
p39
aVwad
p40
aVdope
p41
aVwast
p42
aVbreak
p43
aVjoint
p44
aVzapped
p45
aVgrubby
p46
aVmegabucks
p47
aVspook
p48
aVcool
p49
aVknock
p50
aVgoofi
p51
aVairhead
p52
aVkegger
p53
aVheaved
p54
aVnegat
p55
aVbad
p56
aVgoofy
p57
aVgut
p58
aVcruis
p59
aVmegabuck
p60
aVrack
p61
aVspooked
p62
aVbonkers
p63
aVflick
p64
aVkook
p65
aVblew
p66
aVsquare
p67
aVgrub
p68
aVknockout
p69
aVnut
p70
aVpickled
p71
aVdead
p72
aVI.D
p73
aVjunkie
p74
aVantifreeze
p75
aVspud
p76
aVbarf
p77
aVracket
p78
aVbenched
p79
aVboo-boo
p80
aVbonker
p81
aVgross
p82
aVtotal
p83
aVvibes
p84
aVhardwar
p85
aVneat
p86
aVhooker
p87
aVprod
p88
aVjunki
p89
aVhustle
p90
aVhairy
p91
aVstinks
p92
aVwussi
p93
aVhoncho
p94
aVbash
p95
aVrug
p96
aVhairi
p97
aVwussy
p98
aVthreads
p99
aVnegatives
p100
aVput-on
p101
aVcarb
p102
aVi.d
p103
aVintense
p104
aVdork
p105
aVdicey
p106
aVcop
p107
aVflaki
p108
aVace
p109
aVblimp
p110
aVpaper-pushers
p111
aVflaky
p112
aVarmpit
p113
aVaction
p114
aVwheels
p115
aVammo
p116
aVcroak
p117
aVguts
p118
aVcheesi
p119
aVpop
p120
aVdown
p121
aVglitch
p122
aVcopped
p123
aVditch
p124
aVcheesy
p125
aVzap
p126
aVdamag
p127
aVnuke
p128
aVzip
p129
aVplastered
p130
aVpuke
p131
aVgross-out
p132
aVgig
p133
aVbum
p134
aVcall
p135
aVfreebie
p136
aVbarfed
p137
aVcram
p138
aVkooks
p139
aVjohn
p140
aVpro
p141
aVyukky
p142
aVmush
p143
aVbuck
p144
aVgrungi
p145
aVglitzi
p146
aVchintzi
p147
aVheav
p148
aVdynamite
p149
aVgrungy
p150
aVline
p151
aVfreebi
p152
aVchintzy
p153
aVantifreez
p154
aVgroovy
p155
aVhigh
p156
aVbashed
p157
aVmega
p158
aVdecked
p159
aVstraight
p160
aVblade
p161
aVparty-hearti
p162
aVup
p163
aVbeemer
p164
aVhistori
p165
aVgroovi
p166
aVcuff
p167
aVcan
p168
aVlaid-back
p169
aVsmashed
p170
aVwhiz
p171
aVgrass
p172
aVparty-hearty
p173
aVhistory
p174
aVrag
p175
aVstink
p176
aVscam
p177
aVbent
p178
aVclip
p179
aVjoints
p180
aVawesome
p181
aVfar-out
p182
aVhardware
p183
aVraw
p184
aVnukes
p185
aVsharp
p186
aVrap
p187
aVin
p188
aVclunker
p189
aVglitzy
p190
aVface-off
p191
aVmeltdown
p192
aVtotaled
p193
aVcream
p194
aVfoxi
p195
aVbooz
p196
aVpaws
p197
aVsquar
p198
aVhustl
p199
aVvibe
p200
aVhammer
p201
aVshot
p202
aVexcel
p203
aVdamage
p204
aVfoxy
p205
aVnick
p206
aVhot
p207
aVpad
p208
aVsplit
p209
aVnark
p210
aVgrand
p211
aVpaper-push
p212
aVquarterback
p213
aVwheel
p214
aVrathole
p215
aVplaster
p216
aVnicked
p217
aVstressed
p218
aVslammer
p219
aVthread
p220
aVintens
p221
aVwired
p222
aVwaste
p223
aVnip
p224
aVcollar
p225
aVyukki
p226
aVnarks
p227
aVrepo
p228
aVstress
p229
aVrules
p230
aVpaw
p231
aVhungry
p232
aVrule
p233
aVpickl
p234
aVcushi
p235
aVcon
p236
aVhungri
p237
aVawesom
p238
atp239
Rp240
.